
attack_exp1.elf:     file format elf32-avr

Sections:
Idx Name          Size      VMA       LMA       File off  Algn
  0 .data         000000dc  00800200  00000ed2  00000f66  2**0
                  CONTENTS, ALLOC, LOAD, DATA
  1 .text         00000ed2  00000000  00000000  00000094  2**1
                  CONTENTS, ALLOC, LOAD, READONLY, CODE
  2 .bss          00000094  008002dc  008002dc  00001042  2**0
                  ALLOC
  3 .comment      0000005c  00000000  00000000  00001042  2**0
                  CONTENTS, READONLY
  4 .note.gnu.avr.deviceinfo 00000040  00000000  00000000  000010a0  2**2
                  CONTENTS, READONLY
  5 .debug_aranges 00000208  00000000  00000000  000010e0  2**0
                  CONTENTS, READONLY, DEBUGGING
  6 .debug_info   000022ef  00000000  00000000  000012e8  2**0
                  CONTENTS, READONLY, DEBUGGING
  7 .debug_abbrev 0000199c  00000000  00000000  000035d7  2**0
                  CONTENTS, READONLY, DEBUGGING
  8 .debug_line   00001080  00000000  00000000  00004f73  2**0
                  CONTENTS, READONLY, DEBUGGING
  9 .debug_frame  00000494  00000000  00000000  00005ff4  2**2
                  CONTENTS, READONLY, DEBUGGING
 10 .debug_str    00000bfd  00000000  00000000  00006488  2**0
                  CONTENTS, READONLY, DEBUGGING
 11 .debug_loc    00000ea0  00000000  00000000  00007085  2**0
                  CONTENTS, READONLY, DEBUGGING
 12 .debug_ranges 000001a0  00000000  00000000  00007f25  2**0
                  CONTENTS, READONLY, DEBUGGING

Disassembly of section .text:

00000000 <__vectors>:
   0:	8f c0       	rjmp	.+286    	; 0x120 <__ctors_end>
   2:	00 00       	nop
   4:	aa c0       	rjmp	.+340    	; 0x15a <__bad_interrupt>
   6:	00 00       	nop
   8:	a8 c0       	rjmp	.+336    	; 0x15a <__bad_interrupt>
   a:	00 00       	nop
   c:	a6 c0       	rjmp	.+332    	; 0x15a <__bad_interrupt>
   e:	00 00       	nop
  10:	a4 c0       	rjmp	.+328    	; 0x15a <__bad_interrupt>
  12:	00 00       	nop
  14:	a2 c0       	rjmp	.+324    	; 0x15a <__bad_interrupt>
  16:	00 00       	nop
  18:	a0 c0       	rjmp	.+320    	; 0x15a <__bad_interrupt>
  1a:	00 00       	nop
  1c:	9e c0       	rjmp	.+316    	; 0x15a <__bad_interrupt>
  1e:	00 00       	nop
  20:	9c c0       	rjmp	.+312    	; 0x15a <__bad_interrupt>
  22:	00 00       	nop
  24:	9a c0       	rjmp	.+308    	; 0x15a <__bad_interrupt>
  26:	00 00       	nop
  28:	98 c0       	rjmp	.+304    	; 0x15a <__bad_interrupt>
  2a:	00 00       	nop
  2c:	96 c0       	rjmp	.+300    	; 0x15a <__bad_interrupt>
  2e:	00 00       	nop
  30:	94 c0       	rjmp	.+296    	; 0x15a <__bad_interrupt>
  32:	00 00       	nop
  34:	92 c0       	rjmp	.+292    	; 0x15a <__bad_interrupt>
  36:	00 00       	nop
  38:	90 c0       	rjmp	.+288    	; 0x15a <__bad_interrupt>
  3a:	00 00       	nop
  3c:	8e c0       	rjmp	.+284    	; 0x15a <__bad_interrupt>
  3e:	00 00       	nop
  40:	8c c0       	rjmp	.+280    	; 0x15a <__bad_interrupt>
  42:	00 00       	nop
  44:	8a c0       	rjmp	.+276    	; 0x15a <__bad_interrupt>
  46:	00 00       	nop
  48:	88 c0       	rjmp	.+272    	; 0x15a <__bad_interrupt>
  4a:	00 00       	nop
  4c:	86 c0       	rjmp	.+268    	; 0x15a <__bad_interrupt>
  4e:	00 00       	nop
  50:	84 c0       	rjmp	.+264    	; 0x15a <__bad_interrupt>
  52:	00 00       	nop
  54:	82 c0       	rjmp	.+260    	; 0x15a <__bad_interrupt>
  56:	00 00       	nop
  58:	80 c0       	rjmp	.+256    	; 0x15a <__bad_interrupt>
  5a:	00 00       	nop
  5c:	7e c0       	rjmp	.+252    	; 0x15a <__bad_interrupt>
  5e:	00 00       	nop
  60:	7c c0       	rjmp	.+248    	; 0x15a <__bad_interrupt>
  62:	00 00       	nop
  64:	7a c0       	rjmp	.+244    	; 0x15a <__bad_interrupt>
  66:	00 00       	nop
  68:	78 c0       	rjmp	.+240    	; 0x15a <__bad_interrupt>
  6a:	00 00       	nop
  6c:	76 c0       	rjmp	.+236    	; 0x15a <__bad_interrupt>
  6e:	00 00       	nop
  70:	74 c0       	rjmp	.+232    	; 0x15a <__bad_interrupt>
  72:	00 00       	nop
  74:	72 c0       	rjmp	.+228    	; 0x15a <__bad_interrupt>
  76:	00 00       	nop
  78:	70 c0       	rjmp	.+224    	; 0x15a <__bad_interrupt>
  7a:	00 00       	nop
  7c:	6e c0       	rjmp	.+220    	; 0x15a <__bad_interrupt>
  7e:	00 00       	nop
  80:	6c c0       	rjmp	.+216    	; 0x15a <__bad_interrupt>
  82:	00 00       	nop
  84:	6a c0       	rjmp	.+212    	; 0x15a <__bad_interrupt>
  86:	00 00       	nop
  88:	68 c0       	rjmp	.+208    	; 0x15a <__bad_interrupt>
  8a:	00 00       	nop
  8c:	66 c0       	rjmp	.+204    	; 0x15a <__bad_interrupt>
  8e:	00 00       	nop
  90:	64 c0       	rjmp	.+200    	; 0x15a <__bad_interrupt>
  92:	00 00       	nop
  94:	62 c0       	rjmp	.+196    	; 0x15a <__bad_interrupt>
  96:	00 00       	nop
  98:	60 c0       	rjmp	.+192    	; 0x15a <__bad_interrupt>
  9a:	00 00       	nop
  9c:	5e c0       	rjmp	.+188    	; 0x15a <__bad_interrupt>
  9e:	00 00       	nop
  a0:	5c c0       	rjmp	.+184    	; 0x15a <__bad_interrupt>
  a2:	00 00       	nop
  a4:	5a c0       	rjmp	.+180    	; 0x15a <__bad_interrupt>
  a6:	00 00       	nop
  a8:	58 c0       	rjmp	.+176    	; 0x15a <__bad_interrupt>
  aa:	00 00       	nop
  ac:	56 c0       	rjmp	.+172    	; 0x15a <__bad_interrupt>
  ae:	00 00       	nop
  b0:	54 c0       	rjmp	.+168    	; 0x15a <__bad_interrupt>
  b2:	00 00       	nop
  b4:	52 c0       	rjmp	.+164    	; 0x15a <__bad_interrupt>
  b6:	00 00       	nop
  b8:	50 c0       	rjmp	.+160    	; 0x15a <__bad_interrupt>
  ba:	00 00       	nop
  bc:	4e c0       	rjmp	.+156    	; 0x15a <__bad_interrupt>
  be:	00 00       	nop
  c0:	4c c0       	rjmp	.+152    	; 0x15a <__bad_interrupt>
  c2:	00 00       	nop
  c4:	4a c0       	rjmp	.+148    	; 0x15a <__bad_interrupt>
  c6:	00 00       	nop
  c8:	48 c0       	rjmp	.+144    	; 0x15a <__bad_interrupt>
  ca:	00 00       	nop
  cc:	46 c0       	rjmp	.+140    	; 0x15a <__bad_interrupt>
  ce:	00 00       	nop
  d0:	44 c0       	rjmp	.+136    	; 0x15a <__bad_interrupt>
  d2:	00 00       	nop
  d4:	42 c0       	rjmp	.+132    	; 0x15a <__bad_interrupt>
  d6:	00 00       	nop
  d8:	40 c0       	rjmp	.+128    	; 0x15a <__bad_interrupt>
  da:	00 00       	nop
  dc:	3e c0       	rjmp	.+124    	; 0x15a <__bad_interrupt>
  de:	00 00       	nop
  e0:	3c c0       	rjmp	.+120    	; 0x15a <__bad_interrupt>
  e2:	00 00       	nop
  e4:	3a c0       	rjmp	.+116    	; 0x15a <__bad_interrupt>
  e6:	00 00       	nop
  e8:	38 c0       	rjmp	.+112    	; 0x15a <__bad_interrupt>
  ea:	00 00       	nop
  ec:	36 c0       	rjmp	.+108    	; 0x15a <__bad_interrupt>
  ee:	00 00       	nop
  f0:	34 c0       	rjmp	.+104    	; 0x15a <__bad_interrupt>
  f2:	00 00       	nop
  f4:	32 c0       	rjmp	.+100    	; 0x15a <__bad_interrupt>
  f6:	00 00       	nop
  f8:	30 c0       	rjmp	.+96     	; 0x15a <__bad_interrupt>
  fa:	00 00       	nop
  fc:	2e c0       	rjmp	.+92     	; 0x15a <__bad_interrupt>
  fe:	00 00       	nop
 100:	2c c0       	rjmp	.+88     	; 0x15a <__bad_interrupt>
 102:	00 00       	nop
 104:	2a c0       	rjmp	.+84     	; 0x15a <__bad_interrupt>
 106:	00 00       	nop
 108:	28 c0       	rjmp	.+80     	; 0x15a <__bad_interrupt>
 10a:	00 00       	nop
 10c:	26 c0       	rjmp	.+76     	; 0x15a <__bad_interrupt>
 10e:	00 00       	nop
 110:	24 c0       	rjmp	.+72     	; 0x15a <__bad_interrupt>
 112:	00 00       	nop
 114:	22 c0       	rjmp	.+68     	; 0x15a <__bad_interrupt>
 116:	00 00       	nop
 118:	20 c0       	rjmp	.+64     	; 0x15a <__bad_interrupt>
 11a:	00 00       	nop
 11c:	1e c0       	rjmp	.+60     	; 0x15a <__bad_interrupt>
	...

00000120 <__ctors_end>:
 120:	11 24       	eor	r1, r1
 122:	1f be       	out	0x3f, r1	; 63
 124:	cf ef       	ldi	r28, 0xFF	; 255
 126:	d1 e4       	ldi	r29, 0x41	; 65
 128:	de bf       	out	0x3e, r29	; 62
 12a:	cd bf       	out	0x3d, r28	; 61

0000012c <__do_copy_data>:
 12c:	12 e0       	ldi	r17, 0x02	; 2
 12e:	a0 e0       	ldi	r26, 0x00	; 0
 130:	b2 e0       	ldi	r27, 0x02	; 2
 132:	e2 ed       	ldi	r30, 0xD2	; 210
 134:	fe e0       	ldi	r31, 0x0E	; 14
 136:	00 e0       	ldi	r16, 0x00	; 0
 138:	0b bf       	out	0x3b, r16	; 59
 13a:	02 c0       	rjmp	.+4      	; 0x140 <__do_copy_data+0x14>
 13c:	07 90       	elpm	r0, Z+
 13e:	0d 92       	st	X+, r0
 140:	ac 3d       	cpi	r26, 0xDC	; 220
 142:	b1 07       	cpc	r27, r17
 144:	d9 f7       	brne	.-10     	; 0x13c <__do_copy_data+0x10>

00000146 <__do_clear_bss>:
 146:	23 e0       	ldi	r18, 0x03	; 3
 148:	ac ed       	ldi	r26, 0xDC	; 220
 14a:	b2 e0       	ldi	r27, 0x02	; 2
 14c:	01 c0       	rjmp	.+2      	; 0x150 <.do_clear_bss_start>

0000014e <.do_clear_bss_loop>:
 14e:	1d 92       	st	X+, r1

00000150 <.do_clear_bss_start>:
 150:	a0 37       	cpi	r26, 0x70	; 112
 152:	b2 07       	cpc	r27, r18
 154:	e1 f7       	brne	.-8      	; 0x14e <.do_clear_bss_loop>
 156:	f6 d0       	rcall	.+492    	; 0x344 <main>
 158:	ba c6       	rjmp	.+3444   	; 0xece <_exit>

0000015a <__bad_interrupt>:
 15a:	52 cf       	rjmp	.-348    	; 0x0 <__vectors>

0000015c <init>:

static unsigned char buffer[128];

void init() 
{
	leds_init();
 15c:	d4 d0       	rcall	.+424    	; 0x306 <leds_init>
	leds_on(LED_RED);
 15e:	83 e0       	ldi	r24, 0x03	; 3
 160:	d9 d0       	rcall	.+434    	; 0x314 <leds_on>
	serial_init(9600);
 162:	60 e8       	ldi	r22, 0x80	; 128
 164:	75 e2       	ldi	r23, 0x25	; 37
 166:	80 e0       	ldi	r24, 0x00	; 0
 168:	90 e0       	ldi	r25, 0x00	; 0
 16a:	71 d2       	rcall	.+1250   	; 0x64e <serial_init>
	printf("Demo TX program running on node %04x\n\r", NODE);
 16c:	1f 92       	push	r1
 16e:	81 e0       	ldi	r24, 0x01	; 1
 170:	8f 93       	push	r24
 172:	8f e0       	ldi	r24, 0x0F	; 15
 174:	92 e0       	ldi	r25, 0x02	; 2
 176:	9f 93       	push	r25
 178:	8f 93       	push	r24
	leds_on(LED_ORANGE);
 17a:	b9 d3       	rcall	.+1906   	; 0x8ee <printf>
 17c:	82 e0       	ldi	r24, 0x02	; 2
	button_init();
 17e:	ca d0       	rcall	.+404    	; 0x314 <leds_on>
 180:	b8 d0       	rcall	.+368    	; 0x2f2 <button_init>
	radio_init(NODE);
 182:	81 e0       	ldi	r24, 0x01	; 1
 184:	90 e0       	ldi	r25, 0x00	; 0
 186:	1d d1       	rcall	.+570    	; 0x3c2 <radio_init>
 188:	51 d1       	rcall	.+674    	; 0x42c <radio_start>
	radio_start();
 18a:	0f 90       	pop	r0
 18c:	0f 90       	pop	r0
}
 18e:	0f 90       	pop	r0
 190:	0f 90       	pop	r0
 192:	08 95       	ret

00000194 <loop>:
 194:	cf 92       	push	r12
 196:	df 92       	push	r13

static unsigned char counter=0;
static unsigned long until=0;

void loop() {
 198:	ef 92       	push	r14
 19a:	ff 92       	push	r15
 19c:	0f 93       	push	r16
 19e:	1f 93       	push	r17
 1a0:	cf 93       	push	r28
 1a2:	df 93       	push	r29
 1a4:	cd b7       	in	r28, 0x3d	; 61
 1a6:	de b7       	in	r29, 0x3e	; 62
 1a8:	27 97       	sbiw	r28, 0x07	; 7
 1aa:	0f b6       	in	r0, 0x3f	; 63
 1ac:	f8 94       	cli
 1ae:	de bf       	out	0x3e, r29	; 62
 1b0:	0f be       	out	0x3f, r0	; 63
 1b2:	cd bf       	out	0x3d, r28	; 61
	unsigned short dst=0;
 1b4:	1a 82       	std	Y+2, r1	; 0x02
 1b6:	19 82       	std	Y+1, r1	; 0x01
	unsigned short src=0;
 1b8:	1c 82       	std	Y+4, r1	; 0x04
 1ba:	1b 82       	std	Y+3, r1	; 0x03
	unsigned char valid=0;
	unsigned char energy=0;
	unsigned char lqi=0;
 1bc:	1d 82       	std	Y+5, r1	; 0x05
	if (radio_rxed()) {
 1be:	ab d1       	rcall	.+854    	; 0x516 <radio_rxed>
 1c0:	88 23       	and	r24, r24
 1c2:	09 f4       	brne	.+2      	; 0x1c6 <loop+0x32>
 1c4:	44 c0       	rjmp	.+136    	; 0x24e <loop+0xba>
		unsigned char energy;
		unsigned char valid;
		//printf("Echo received.\n\r");
		int rxLen = radio_recv(&buffer[0],128,&dst,&src,&valid,&energy,&lqi);
 1c6:	9e 01       	movw	r18, r28
 1c8:	2b 5f       	subi	r18, 0xFB	; 251
 1ca:	3f 4f       	sbci	r19, 0xFF	; 255
 1cc:	69 01       	movw	r12, r18
 1ce:	ce 01       	movw	r24, r28
 1d0:	07 96       	adiw	r24, 0x07	; 7
 1d2:	7c 01       	movw	r14, r24
 1d4:	8e 01       	movw	r16, r28
 1d6:	0a 5f       	subi	r16, 0xFA	; 250
 1d8:	1f 4f       	sbci	r17, 0xFF	; 255
 1da:	22 50       	subi	r18, 0x02	; 2
 1dc:	31 09       	sbc	r19, r1
 1de:	ae 01       	movw	r20, r28
 1e0:	4f 5f       	subi	r20, 0xFF	; 255
 1e2:	5f 4f       	sbci	r21, 0xFF	; 255
 1e4:	60 e8       	ldi	r22, 0x80	; 128
 1e6:	8c ed       	ldi	r24, 0xDC	; 220
 1e8:	92 e0       	ldi	r25, 0x02	; 2
 1ea:	9b d1       	rcall	.+822    	; 0x522 <radio_recv>
 1ec:	c8 2e       	mov	r12, r24
		printf("Message received from transmitter %04x to receiver %04x with data:", NODE,DESTINATION);
 1ee:	1f 92       	push	r1
 1f0:	82 e0       	ldi	r24, 0x02	; 2
 1f2:	8f 93       	push	r24
 1f4:	1f 92       	push	r1
 1f6:	81 e0       	ldi	r24, 0x01	; 1
 1f8:	8f 93       	push	r24
 1fa:	86 e3       	ldi	r24, 0x36	; 54
 1fc:	92 e0       	ldi	r25, 0x02	; 2
 1fe:	9f 93       	push	r25
 200:	8f 93       	push	r24
 202:	75 d3       	rcall	.+1770   	; 0x8ee <printf>
		for (int i=0; i<rxLen; i++)
 204:	0f 90       	pop	r0
 206:	0f 90       	pop	r0
 208:	0f 90       	pop	r0
 20a:	0f 90       	pop	r0
 20c:	0f 90       	pop	r0
 20e:	0f 90       	pop	r0
 210:	cc 20       	and	r12, r12
 212:	e9 f0       	breq	.+58     	; 0x24e <loop+0xba>
 214:	0c ed       	ldi	r16, 0xDC	; 220
 216:	12 e0       	ldi	r17, 0x02	; 2
 218:	8c 2d       	mov	r24, r12
 21a:	90 e0       	ldi	r25, 0x00	; 0
 21c:	fc 01       	movw	r30, r24
 21e:	e4 52       	subi	r30, 0x24	; 36
 220:	fd 4f       	sbci	r31, 0xFD	; 253
 222:	6f 01       	movw	r12, r30
			printf(" %02x ", buffer[i]);
 224:	0f 2e       	mov	r0, r31
 226:	f9 e7       	ldi	r31, 0x79	; 121
 228:	ef 2e       	mov	r14, r31
 22a:	f2 e0       	ldi	r31, 0x02	; 2
 22c:	ff 2e       	mov	r15, r31
 22e:	f0 2d       	mov	r31, r0
 230:	f8 01       	movw	r30, r16
 232:	81 91       	ld	r24, Z+
 234:	8f 01       	movw	r16, r30
 236:	1f 92       	push	r1
 238:	8f 93       	push	r24
 23a:	ff 92       	push	r15
 23c:	ef 92       	push	r14
 23e:	57 d3       	rcall	.+1710   	; 0x8ee <printf>
		unsigned char energy;
		unsigned char valid;
		//printf("Echo received.\n\r");
		int rxLen = radio_recv(&buffer[0],128,&dst,&src,&valid,&energy,&lqi);
		printf("Message received from transmitter %04x to receiver %04x with data:", NODE,DESTINATION);
		for (int i=0; i<rxLen; i++)
 240:	0f 90       	pop	r0
 242:	0f 90       	pop	r0
 244:	0f 90       	pop	r0
 246:	0f 90       	pop	r0
 248:	0c 15       	cp	r16, r12
 24a:	1d 05       	cpc	r17, r13
		//printf("Data received is %02x %02x %02x %02x\n",buffer[0],buffer[1],buffer[2],buffer[3]);	
		//printf("\n\r");*/
		
	} 

	if (button_pressed()) {
 24c:	89 f7       	brne	.-30     	; 0x230 <loop+0x9c>
 24e:	54 d0       	rcall	.+168    	; 0x2f8 <button_pressed>
 250:	88 23       	and	r24, r24
 252:	09 f4       	brne	.+2      	; 0x256 <loop+0xc2>
		while (button_pressed()); // wait till button released
 254:	3f c0       	rjmp	.+126    	; 0x2d4 <loop+0x140>
 256:	50 d0       	rcall	.+160    	; 0x2f8 <button_pressed>
		printf("Button pressed \n");
 258:	81 11       	cpse	r24, r1
 25a:	fd cf       	rjmp	.-6      	; 0x256 <loop+0xc2>
 25c:	80 e8       	ldi	r24, 0x80	; 128
 25e:	92 e0       	ldi	r25, 0x02	; 2
		leds_on(LED_GREEN);
 260:	59 d3       	rcall	.+1714   	; 0x914 <puts>
 262:	81 e0       	ldi	r24, 0x01	; 1
		//printf("TX at %lu: %02x %02x %02x %02x\n\r", time_millis(), buffer[0], buffer[1], buffer[2], buffer[3]);
		radio_send(buffer,4,0x0002);
 264:	57 d0       	rcall	.+174    	; 0x314 <leds_on>
 266:	42 e0       	ldi	r20, 0x02	; 2
 268:	50 e0       	ldi	r21, 0x00	; 0
 26a:	64 e0       	ldi	r22, 0x04	; 4
 26c:	8c ed       	ldi	r24, 0xDC	; 220
 26e:	92 e0       	ldi	r25, 0x02	; 2
 270:	ef d0       	rcall	.+478    	; 0x450 <radio_send>
		printf("Sent the recorded message from transmitter %04x to receiver %04x with data:",NODE,DESTINATION);
 272:	1f 92       	push	r1
 274:	82 e0       	ldi	r24, 0x02	; 2
 276:	8f 93       	push	r24
 278:	1f 92       	push	r1
 27a:	81 e0       	ldi	r24, 0x01	; 1
 27c:	8f 93       	push	r24
 27e:	80 e9       	ldi	r24, 0x90	; 144
 280:	92 e0       	ldi	r25, 0x02	; 2
 282:	9f 93       	push	r25
 284:	8f 93       	push	r24
 286:	33 d3       	rcall	.+1638   	; 0x8ee <printf>
 288:	0c ed       	ldi	r16, 0xDC	; 220
 28a:	12 e0       	ldi	r17, 0x02	; 2
 28c:	0f 2e       	mov	r0, r31
 28e:	f0 ee       	ldi	r31, 0xE0	; 224
 290:	cf 2e       	mov	r12, r31
 292:	f2 e0       	ldi	r31, 0x02	; 2
 294:	df 2e       	mov	r13, r31
 296:	f0 2d       	mov	r31, r0
 298:	0f 90       	pop	r0
 29a:	0f 90       	pop	r0
 29c:	0f 90       	pop	r0
 29e:	0f 90       	pop	r0
 2a0:	0f 90       	pop	r0
 2a2:	0f 90       	pop	r0
		for (int i=0;i<4;i++)
		{
			printf("%02x ",buffer[i]);
 2a4:	0f 2e       	mov	r0, r31
 2a6:	fa e7       	ldi	r31, 0x7A	; 122
 2a8:	ef 2e       	mov	r14, r31
 2aa:	f2 e0       	ldi	r31, 0x02	; 2
 2ac:	ff 2e       	mov	r15, r31
 2ae:	f0 2d       	mov	r31, r0
 2b0:	f8 01       	movw	r30, r16
 2b2:	81 91       	ld	r24, Z+
 2b4:	8f 01       	movw	r16, r30
 2b6:	1f 92       	push	r1
 2b8:	8f 93       	push	r24
 2ba:	ff 92       	push	r15
		printf("Button pressed \n");
		leds_on(LED_GREEN);
		//printf("TX at %lu: %02x %02x %02x %02x\n\r", time_millis(), buffer[0], buffer[1], buffer[2], buffer[3]);
		radio_send(buffer,4,0x0002);
		printf("Sent the recorded message from transmitter %04x to receiver %04x with data:",NODE,DESTINATION);
		for (int i=0;i<4;i++)
 2bc:	ef 92       	push	r14
 2be:	17 d3       	rcall	.+1582   	; 0x8ee <printf>
 2c0:	0f 90       	pop	r0
 2c2:	0f 90       	pop	r0
 2c4:	0f 90       	pop	r0
 2c6:	0f 90       	pop	r0
 2c8:	c0 16       	cp	r12, r16
		{
			printf("%02x ",buffer[i]);
		}
		leds_off(LED_GREEN);
 2ca:	d1 06       	cpc	r13, r17
 2cc:	89 f7       	brne	.-30     	; 0x2b0 <loop+0x11c>
 2ce:	81 e0       	ldi	r24, 0x01	; 1
		// Now see if there is a response - within 1 second
		until=time_millis()+1000;
 2d0:	2d d0       	rcall	.+90     	; 0x32c <leds_off>
 2d2:	3d d2       	rcall	.+1146   	; 0x74e <time_millis>
	}
	   
}
 2d4:	27 96       	adiw	r28, 0x07	; 7
 2d6:	0f b6       	in	r0, 0x3f	; 63
 2d8:	f8 94       	cli
 2da:	de bf       	out	0x3e, r29	; 62
 2dc:	0f be       	out	0x3f, r0	; 63
 2de:	cd bf       	out	0x3d, r28	; 61
 2e0:	df 91       	pop	r29
 2e2:	cf 91       	pop	r28
 2e4:	1f 91       	pop	r17
 2e6:	0f 91       	pop	r16
 2e8:	ff 90       	pop	r15
 2ea:	ef 90       	pop	r14
 2ec:	df 90       	pop	r13
 2ee:	cf 90       	pop	r12
 2f0:	08 95       	ret

000002f2 <button_init>:
 2f2:	6d 98       	cbi	0x0d, 5	; 13
 2f4:	75 9a       	sbi	0x0e, 5	; 14
 2f6:	08 95       	ret

000002f8 <button_pressed>:
 2f8:	8c b1       	in	r24, 0x0c	; 12
 2fa:	85 fb       	bst	r24, 5
 2fc:	88 27       	eor	r24, r24
 2fe:	80 f9       	bld	r24, 0
 300:	91 e0       	ldi	r25, 0x01	; 1
 302:	89 27       	eor	r24, r25
 304:	08 95       	ret

00000306 <leds_init>:
 306:	6a 9a       	sbi	0x0d, 2	; 13
 308:	6b 9a       	sbi	0x0d, 3	; 13
 30a:	6c 9a       	sbi	0x0d, 4	; 13
 30c:	72 9a       	sbi	0x0e, 2	; 14
 30e:	73 9a       	sbi	0x0e, 3	; 14
 310:	74 9a       	sbi	0x0e, 4	; 14
 312:	08 95       	ret

00000314 <leds_on>:
 314:	81 30       	cpi	r24, 0x01	; 1
 316:	11 f4       	brne	.+4      	; 0x31c <leds_on+0x8>
 318:	72 98       	cbi	0x0e, 2	; 14
 31a:	08 95       	ret
 31c:	82 30       	cpi	r24, 0x02	; 2
 31e:	11 f4       	brne	.+4      	; 0x324 <leds_on+0x10>
 320:	73 98       	cbi	0x0e, 3	; 14
 322:	08 95       	ret
 324:	83 30       	cpi	r24, 0x03	; 3
 326:	09 f4       	brne	.+2      	; 0x32a <leds_on+0x16>
 328:	74 98       	cbi	0x0e, 4	; 14
 32a:	08 95       	ret

0000032c <leds_off>:
 32c:	81 30       	cpi	r24, 0x01	; 1
 32e:	11 f4       	brne	.+4      	; 0x334 <leds_off+0x8>
 330:	72 9a       	sbi	0x0e, 2	; 14
 332:	08 95       	ret
 334:	82 30       	cpi	r24, 0x02	; 2
 336:	11 f4       	brne	.+4      	; 0x33c <leds_off+0x10>
 338:	73 9a       	sbi	0x0e, 3	; 14
 33a:	08 95       	ret
 33c:	83 30       	cpi	r24, 0x03	; 3
 33e:	09 f4       	brne	.+2      	; 0x342 <leds_off+0x16>
 340:	74 9a       	sbi	0x0e, 4	; 14
 342:	08 95       	ret

00000344 <main>:
 344:	0d d2       	rcall	.+1050   	; 0x760 <timer_init>
 346:	80 e0       	ldi	r24, 0x00	; 0
 348:	90 e0       	ldi	r25, 0x00	; 0
 34a:	18 d2       	rcall	.+1072   	; 0x77c <timer_start>
 34c:	07 df       	rcall	.-498    	; 0x15c <init>
 34e:	0f 2e       	mov	r0, r31
 350:	f0 e8       	ldi	r31, 0x80	; 128
 352:	cf 2e       	mov	r12, r31
 354:	fe e3       	ldi	r31, 0x3E	; 62
 356:	df 2e       	mov	r13, r31
 358:	e1 2c       	mov	r14, r1
 35a:	f1 2c       	mov	r15, r1
 35c:	f0 2d       	mov	r31, r0
 35e:	1a df       	rcall	.-460    	; 0x194 <loop>
 360:	18 d2       	rcall	.+1072   	; 0x792 <timer_overflow>
 362:	88 23       	and	r24, r24
 364:	89 f0       	breq	.+34     	; 0x388 <main+0x44>
 366:	80 91 5c 03 	lds	r24, 0x035C	; 0x80035c <cycles>
 36a:	90 91 5d 03 	lds	r25, 0x035D	; 0x80035d <cycles+0x1>
 36e:	a0 91 5e 03 	lds	r26, 0x035E	; 0x80035e <cycles+0x2>
 372:	b0 91 5f 03 	lds	r27, 0x035F	; 0x80035f <cycles+0x3>
 376:	11 96       	adiw	r26, 0x01	; 1
 378:	80 93 5c 03 	sts	0x035C, r24	; 0x80035c <cycles>
 37c:	90 93 5d 03 	sts	0x035D, r25	; 0x80035d <cycles+0x1>
 380:	a0 93 5e 03 	sts	0x035E, r26	; 0x80035e <cycles+0x2>
 384:	b0 93 5f 03 	sts	0x035F, r27	; 0x80035f <cycles+0x3>
 388:	0f d2       	rcall	.+1054   	; 0x7a8 <timer_now>
 38a:	40 91 5c 03 	lds	r20, 0x035C	; 0x80035c <cycles>
 38e:	50 91 5d 03 	lds	r21, 0x035D	; 0x80035d <cycles+0x1>
 392:	60 91 5e 03 	lds	r22, 0x035E	; 0x80035e <cycles+0x2>
 396:	70 91 5f 03 	lds	r23, 0x035F	; 0x80035f <cycles+0x3>
 39a:	8a 01       	movw	r16, r20
 39c:	9b 01       	movw	r18, r22
 39e:	08 0f       	add	r16, r24
 3a0:	19 1f       	adc	r17, r25
 3a2:	21 1d       	adc	r18, r1
 3a4:	31 1d       	adc	r19, r1
 3a6:	c9 01       	movw	r24, r18
 3a8:	b8 01       	movw	r22, r16
 3aa:	a7 01       	movw	r20, r14
 3ac:	96 01       	movw	r18, r12
 3ae:	5e d2       	rcall	.+1212   	; 0x86c <__udivmodsi4>
 3b0:	20 93 66 03 	sts	0x0366, r18	; 0x800366 <time_millis_count>
 3b4:	30 93 67 03 	sts	0x0367, r19	; 0x800367 <time_millis_count+0x1>
 3b8:	40 93 68 03 	sts	0x0368, r20	; 0x800368 <time_millis_count+0x2>
 3bc:	50 93 69 03 	sts	0x0369, r21	; 0x800369 <time_millis_count+0x3>
 3c0:	ce cf       	rjmp	.-100    	; 0x35e <main+0x1a>

000003c2 <radio_init>:
 3c2:	0f 93       	push	r16
 3c4:	1f 93       	push	r17
 3c6:	cf 93       	push	r28
 3c8:	df 93       	push	r29
 3ca:	d8 2f       	mov	r29, r24
 3cc:	c9 2f       	mov	r28, r25
 3ce:	09 e3       	ldi	r16, 0x39	; 57
 3d0:	11 e0       	ldi	r17, 0x01	; 1
 3d2:	f8 01       	movw	r30, r16
 3d4:	10 82       	st	Z, r1
 3d6:	86 e0       	ldi	r24, 0x06	; 6
 3d8:	90 e0       	ldi	r25, 0x00	; 0
 3da:	eb d1       	rcall	.+982    	; 0x7b2 <timer_wait_micro>
 3dc:	81 e0       	ldi	r24, 0x01	; 1
 3de:	f8 01       	movw	r30, r16
 3e0:	80 83       	st	Z, r24
 3e2:	80 91 41 01 	lds	r24, 0x0141	; 0x800141 <__TEXT_REGION_LENGTH__+0x7e0141>
 3e6:	81 11       	cpse	r24, r1
 3e8:	08 c0       	rjmp	.+16     	; 0x3fa <radio_init+0x38>
 3ea:	88 e0       	ldi	r24, 0x08	; 8
 3ec:	80 93 42 01 	sts	0x0142, r24	; 0x800142 <__TEXT_REGION_LENGTH__+0x7e0142>
 3f0:	8e ef       	ldi	r24, 0xFE	; 254
 3f2:	91 e0       	ldi	r25, 0x01	; 1
 3f4:	de d1       	rcall	.+956    	; 0x7b2 <timer_wait_micro>
 3f6:	80 91 41 01 	lds	r24, 0x0141	; 0x800141 <__TEXT_REGION_LENGTH__+0x7e0141>
 3fa:	8b e0       	ldi	r24, 0x0B	; 11
 3fc:	80 93 48 01 	sts	0x0148, r24	; 0x800148 <__TEXT_REGION_LENGTH__+0x7e0148>
 400:	8f ef       	ldi	r24, 0xFF	; 255
 402:	80 93 4f 01 	sts	0x014F, r24	; 0x80014f <__TEXT_REGION_LENGTH__+0x7e014f>
 406:	d0 93 63 03 	sts	0x0363, r29	; 0x800363 <radio_macaddr>
 40a:	c0 93 64 03 	sts	0x0364, r28	; 0x800364 <radio_macaddr+0x1>
 40e:	d0 93 60 01 	sts	0x0160, r29	; 0x800160 <__TEXT_REGION_LENGTH__+0x7e0160>
 412:	c0 93 61 01 	sts	0x0161, r28	; 0x800161 <__TEXT_REGION_LENGTH__+0x7e0161>
 416:	10 92 62 01 	sts	0x0162, r1	; 0x800162 <__TEXT_REGION_LENGTH__+0x7e0162>
 41a:	10 92 63 01 	sts	0x0163, r1	; 0x800163 <__TEXT_REGION_LENGTH__+0x7e0163>
 41e:	80 91 41 01 	lds	r24, 0x0141	; 0x800141 <__TEXT_REGION_LENGTH__+0x7e0141>
 422:	df 91       	pop	r29
 424:	cf 91       	pop	r28
 426:	1f 91       	pop	r17
 428:	0f 91       	pop	r16
 42a:	08 95       	ret

0000042c <radio_start>:
 42c:	8f ef       	ldi	r24, 0xFF	; 255
 42e:	80 93 4f 01 	sts	0x014F, r24	; 0x80014f <__TEXT_REGION_LENGTH__+0x7e014f>
 432:	86 e0       	ldi	r24, 0x06	; 6
 434:	80 93 42 01 	sts	0x0142, r24	; 0x800142 <__TEXT_REGION_LENGTH__+0x7e0142>
 438:	e1 e4       	ldi	r30, 0x41	; 65
 43a:	f1 e0       	ldi	r31, 0x01	; 1
 43c:	80 81       	ld	r24, Z
 43e:	8f 71       	andi	r24, 0x1F	; 31
 440:	86 30       	cpi	r24, 0x06	; 6
 442:	e1 f7       	brne	.-8      	; 0x43c <radio_start+0x10>
 444:	ec e4       	ldi	r30, 0x4C	; 76
 446:	f1 e0       	ldi	r31, 0x01	; 1
 448:	80 81       	ld	r24, Z
 44a:	80 68       	ori	r24, 0x80	; 128
 44c:	80 83       	st	Z, r24
 44e:	08 95       	ret

00000450 <radio_send>:
 450:	2f ef       	ldi	r18, 0xFF	; 255
 452:	20 93 4f 01 	sts	0x014F, r18	; 0x80014f <__TEXT_REGION_LENGTH__+0x7e014f>
 456:	20 91 41 01 	lds	r18, 0x0141	; 0x800141 <__TEXT_REGION_LENGTH__+0x7e0141>
 45a:	2f 71       	andi	r18, 0x1F	; 31
 45c:	29 30       	cpi	r18, 0x09	; 9
 45e:	41 f0       	breq	.+16     	; 0x470 <radio_send+0x20>
 460:	29 e0       	ldi	r18, 0x09	; 9
 462:	20 93 42 01 	sts	0x0142, r18	; 0x800142 <__TEXT_REGION_LENGTH__+0x7e0142>
 466:	e1 e4       	ldi	r30, 0x41	; 65
 468:	f1 e0       	ldi	r31, 0x01	; 1
 46a:	20 81       	ld	r18, Z
 46c:	29 30       	cpi	r18, 0x09	; 9
 46e:	e9 f7       	brne	.-6      	; 0x46a <radio_send+0x1a>
 470:	2d e0       	ldi	r18, 0x0D	; 13
 472:	26 0f       	add	r18, r22
 474:	20 93 80 01 	sts	0x0180, r18	; 0x800180 <__TEXT_REGION_LENGTH__+0x7e0180>
 478:	20 e2       	ldi	r18, 0x20	; 32
 47a:	20 93 81 01 	sts	0x0181, r18	; 0x800181 <__TEXT_REGION_LENGTH__+0x7e0181>
 47e:	22 e2       	ldi	r18, 0x22	; 34
 480:	20 93 82 01 	sts	0x0182, r18	; 0x800182 <__TEXT_REGION_LENGTH__+0x7e0182>
 484:	21 e0       	ldi	r18, 0x01	; 1
 486:	20 93 83 01 	sts	0x0183, r18	; 0x800183 <__TEXT_REGION_LENGTH__+0x7e0183>
 48a:	10 92 84 01 	sts	0x0184, r1	; 0x800184 <__TEXT_REGION_LENGTH__+0x7e0184>
 48e:	10 92 85 01 	sts	0x0185, r1	; 0x800185 <__TEXT_REGION_LENGTH__+0x7e0185>
 492:	50 93 86 01 	sts	0x0186, r21	; 0x800186 <__TEXT_REGION_LENGTH__+0x7e0186>
 496:	40 93 87 01 	sts	0x0187, r20	; 0x800187 <__TEXT_REGION_LENGTH__+0x7e0187>
 49a:	10 92 88 01 	sts	0x0188, r1	; 0x800188 <__TEXT_REGION_LENGTH__+0x7e0188>
 49e:	10 92 89 01 	sts	0x0189, r1	; 0x800189 <__TEXT_REGION_LENGTH__+0x7e0189>
 4a2:	20 91 64 03 	lds	r18, 0x0364	; 0x800364 <radio_macaddr+0x1>
 4a6:	20 93 8a 01 	sts	0x018A, r18	; 0x80018a <__TEXT_REGION_LENGTH__+0x7e018a>
 4aa:	20 91 63 03 	lds	r18, 0x0363	; 0x800363 <radio_macaddr>
 4ae:	20 93 8b 01 	sts	0x018B, r18	; 0x80018b <__TEXT_REGION_LENGTH__+0x7e018b>
 4b2:	66 23       	and	r22, r22
 4b4:	91 f0       	breq	.+36     	; 0x4da <radio_send+0x8a>
 4b6:	a8 2f       	mov	r26, r24
 4b8:	b9 2f       	mov	r27, r25
 4ba:	61 50       	subi	r22, 0x01	; 1
 4bc:	70 e0       	ldi	r23, 0x00	; 0
 4be:	9b 01       	movw	r18, r22
 4c0:	23 57       	subi	r18, 0x73	; 115
 4c2:	3e 4f       	sbci	r19, 0xFE	; 254
 4c4:	ec e8       	ldi	r30, 0x8C	; 140
 4c6:	f1 e0       	ldi	r31, 0x01	; 1
 4c8:	8d 91       	ld	r24, X+
 4ca:	81 93       	st	Z+, r24
 4cc:	e2 17       	cp	r30, r18
 4ce:	f3 07       	cpc	r31, r19
 4d0:	d9 f7       	brne	.-10     	; 0x4c8 <radio_send+0x78>
 4d2:	fb 01       	movw	r30, r22
 4d4:	e3 57       	subi	r30, 0x73	; 115
 4d6:	fe 4f       	sbci	r31, 0xFE	; 254
 4d8:	02 c0       	rjmp	.+4      	; 0x4de <radio_send+0x8e>
 4da:	ec e8       	ldi	r30, 0x8C	; 140
 4dc:	f1 e0       	ldi	r31, 0x01	; 1
 4de:	10 82       	st	Z, r1
 4e0:	11 82       	std	Z+1, r1	; 0x01
 4e2:	82 e0       	ldi	r24, 0x02	; 2
 4e4:	80 93 42 01 	sts	0x0142, r24	; 0x800142 <__TEXT_REGION_LENGTH__+0x7e0142>
 4e8:	ef e4       	ldi	r30, 0x4F	; 79
 4ea:	f1 e0       	ldi	r31, 0x01	; 1
 4ec:	80 81       	ld	r24, Z
 4ee:	86 ff       	sbrs	r24, 6
 4f0:	fd cf       	rjmp	.-6      	; 0x4ec <radio_send+0x9c>
 4f2:	8f ef       	ldi	r24, 0xFF	; 255
 4f4:	80 93 4f 01 	sts	0x014F, r24	; 0x80014f <__TEXT_REGION_LENGTH__+0x7e014f>
 4f8:	86 e0       	ldi	r24, 0x06	; 6
 4fa:	80 93 42 01 	sts	0x0142, r24	; 0x800142 <__TEXT_REGION_LENGTH__+0x7e0142>
 4fe:	e1 e4       	ldi	r30, 0x41	; 65
 500:	f1 e0       	ldi	r31, 0x01	; 1
 502:	80 81       	ld	r24, Z
 504:	8f 71       	andi	r24, 0x1F	; 31
 506:	86 30       	cpi	r24, 0x06	; 6
 508:	e1 f7       	brne	.-8      	; 0x502 <radio_send+0xb2>
 50a:	81 e0       	ldi	r24, 0x01	; 1
 50c:	80 93 60 03 	sts	0x0360, r24	; 0x800360 <radio_txdone_flag>
 510:	80 91 41 01 	lds	r24, 0x0141	; 0x800141 <__TEXT_REGION_LENGTH__+0x7e0141>
 514:	08 95       	ret

00000516 <radio_rxed>:
 516:	80 91 4f 01 	lds	r24, 0x014F	; 0x80014f <__TEXT_REGION_LENGTH__+0x7e014f>
 51a:	83 fb       	bst	r24, 3
 51c:	88 27       	eor	r24, r24
 51e:	80 f9       	bld	r24, 0
 520:	08 95       	ret

00000522 <radio_recv>:
 522:	9f 92       	push	r9
 524:	af 92       	push	r10
 526:	bf 92       	push	r11
 528:	cf 92       	push	r12
 52a:	df 92       	push	r13
 52c:	ef 92       	push	r14
 52e:	ff 92       	push	r15
 530:	0f 93       	push	r16
 532:	1f 93       	push	r17
 534:	cf 93       	push	r28
 536:	df 93       	push	r29
 538:	90 90 7b 01 	lds	r9, 0x017B	; 0x80017b <__TEXT_REGION_LENGTH__+0x7e017b>
 53c:	7f ef       	ldi	r23, 0xFF	; 255
 53e:	70 93 00 02 	sts	0x0200, r23	; 0x800200 <__data_start>
 542:	ef e4       	ldi	r30, 0x4F	; 79
 544:	f1 e0       	ldi	r31, 0x01	; 1
 546:	70 81       	ld	r23, Z
 548:	72 ff       	sbrs	r23, 2
 54a:	fd cf       	rjmp	.-6      	; 0x546 <radio_recv+0x24>
 54c:	cf e4       	ldi	r28, 0x4F	; 79
 54e:	d1 e0       	ldi	r29, 0x01	; 1
 550:	0f 2e       	mov	r0, r31
 552:	f6 e4       	ldi	r31, 0x46	; 70
 554:	af 2e       	mov	r10, r31
 556:	bb 24       	eor	r11, r11
 558:	b3 94       	inc	r11
 55a:	f0 2d       	mov	r31, r0
 55c:	0d c0       	rjmp	.+26     	; 0x578 <radio_recv+0x56>
 55e:	f5 01       	movw	r30, r10
 560:	70 81       	ld	r23, Z
 562:	e7 2f       	mov	r30, r23
 564:	ef 71       	andi	r30, 0x1F	; 31
 566:	f0 e0       	ldi	r31, 0x00	; 0
 568:	ae 17       	cp	r26, r30
 56a:	bf 07       	cpc	r27, r31
 56c:	44 f4       	brge	.+16     	; 0x57e <radio_recv+0x5c>
 56e:	d5 01       	movw	r26, r10
 570:	ec 91       	ld	r30, X
 572:	ef 71       	andi	r30, 0x1F	; 31
 574:	e0 93 00 02 	sts	0x0200, r30	; 0x800200 <__data_start>
 578:	a0 91 00 02 	lds	r26, 0x0200	; 0x800200 <__data_start>
 57c:	b0 e0       	ldi	r27, 0x00	; 0
 57e:	78 81       	ld	r23, Y
 580:	73 ff       	sbrs	r23, 3
 582:	ed cf       	rjmp	.-38     	; 0x55e <radio_recv+0x3c>
 584:	75 ef       	ldi	r23, 0xF5	; 245
 586:	79 0d       	add	r23, r9
 588:	67 17       	cp	r22, r23
 58a:	08 f4       	brcc	.+2      	; 0x58e <radio_recv+0x6c>
 58c:	76 2f       	mov	r23, r22
 58e:	e0 91 85 01 	lds	r30, 0x0185	; 0x800185 <__TEXT_REGION_LENGTH__+0x7e0185>
 592:	f0 e0       	ldi	r31, 0x00	; 0
 594:	fe 2f       	mov	r31, r30
 596:	ee 27       	eor	r30, r30
 598:	60 91 86 01 	lds	r22, 0x0186	; 0x800186 <__TEXT_REGION_LENGTH__+0x7e0186>
 59c:	e6 2b       	or	r30, r22
 59e:	da 01       	movw	r26, r20
 5a0:	ed 93       	st	X+, r30
 5a2:	fc 93       	st	X, r31
 5a4:	40 91 89 01 	lds	r20, 0x0189	; 0x800189 <__TEXT_REGION_LENGTH__+0x7e0189>
 5a8:	50 e0       	ldi	r21, 0x00	; 0
 5aa:	54 2f       	mov	r21, r20
 5ac:	44 27       	eor	r20, r20
 5ae:	60 91 8a 01 	lds	r22, 0x018A	; 0x80018a <__TEXT_REGION_LENGTH__+0x7e018a>
 5b2:	46 2b       	or	r20, r22
 5b4:	f9 01       	movw	r30, r18
 5b6:	51 83       	std	Z+1, r21	; 0x01
 5b8:	40 83       	st	Z, r20
 5ba:	77 23       	and	r23, r23
 5bc:	99 f0       	breq	.+38     	; 0x5e4 <radio_recv+0xc2>
 5be:	a8 2f       	mov	r26, r24
 5c0:	b9 2f       	mov	r27, r25
 5c2:	4f ef       	ldi	r20, 0xFF	; 255
 5c4:	47 0f       	add	r20, r23
 5c6:	50 e0       	ldi	r21, 0x00	; 0
 5c8:	9a 01       	movw	r18, r20
 5ca:	24 57       	subi	r18, 0x74	; 116
 5cc:	3e 4f       	sbci	r19, 0xFE	; 254
 5ce:	eb e8       	ldi	r30, 0x8B	; 139
 5d0:	f1 e0       	ldi	r31, 0x01	; 1
 5d2:	91 91       	ld	r25, Z+
 5d4:	9d 93       	st	X+, r25
 5d6:	e2 17       	cp	r30, r18
 5d8:	f3 07       	cpc	r31, r19
 5da:	d9 f7       	brne	.-10     	; 0x5d2 <radio_recv+0xb0>
 5dc:	fa 01       	movw	r30, r20
 5de:	e4 57       	subi	r30, 0x74	; 116
 5e0:	fe 4f       	sbci	r31, 0xFE	; 254
 5e2:	02 c0       	rjmp	.+4      	; 0x5e8 <radio_recv+0xc6>
 5e4:	eb e8       	ldi	r30, 0x8B	; 139
 5e6:	f1 e0       	ldi	r31, 0x01	; 1
 5e8:	80 81       	ld	r24, Z
 5ea:	80 93 61 03 	sts	0x0361, r24	; 0x800361 <radio_lqi>
 5ee:	d6 01       	movw	r26, r12
 5f0:	8c 93       	st	X, r24
 5f2:	80 91 47 01 	lds	r24, 0x0147	; 0x800147 <__TEXT_REGION_LENGTH__+0x7e0147>
 5f6:	80 93 62 03 	sts	0x0362, r24	; 0x800362 <radio_energy>
 5fa:	f7 01       	movw	r30, r14
 5fc:	80 83       	st	Z, r24
 5fe:	80 91 46 01 	lds	r24, 0x0146	; 0x800146 <__TEXT_REGION_LENGTH__+0x7e0146>
 602:	88 1f       	adc	r24, r24
 604:	88 27       	eor	r24, r24
 606:	88 1f       	adc	r24, r24
 608:	d8 01       	movw	r26, r16
 60a:	8c 93       	st	X, r24
 60c:	e1 e4       	ldi	r30, 0x41	; 65
 60e:	f1 e0       	ldi	r31, 0x01	; 1
 610:	90 81       	ld	r25, Z
 612:	9f 71       	andi	r25, 0x1F	; 31
 614:	96 30       	cpi	r25, 0x06	; 6
 616:	e1 f7       	brne	.-8      	; 0x610 <radio_recv+0xee>
 618:	ec e4       	ldi	r30, 0x4C	; 76
 61a:	f1 e0       	ldi	r31, 0x01	; 1
 61c:	80 81       	ld	r24, Z
 61e:	8f 77       	andi	r24, 0x7F	; 127
 620:	80 83       	st	Z, r24
 622:	80 81       	ld	r24, Z
 624:	80 68       	ori	r24, 0x80	; 128
 626:	80 83       	st	Z, r24
 628:	8f ef       	ldi	r24, 0xFF	; 255
 62a:	80 93 4f 01 	sts	0x014F, r24	; 0x80014f <__TEXT_REGION_LENGTH__+0x7e014f>
 62e:	80 91 41 01 	lds	r24, 0x0141	; 0x800141 <__TEXT_REGION_LENGTH__+0x7e0141>
 632:	8e ef       	ldi	r24, 0xFE	; 254
 634:	87 0f       	add	r24, r23
 636:	df 91       	pop	r29
 638:	cf 91       	pop	r28
 63a:	1f 91       	pop	r17
 63c:	0f 91       	pop	r16
 63e:	ff 90       	pop	r15
 640:	ef 90       	pop	r14
 642:	df 90       	pop	r13
 644:	cf 90       	pop	r12
 646:	bf 90       	pop	r11
 648:	af 90       	pop	r10
 64a:	9f 90       	pop	r9
 64c:	08 95       	ret

0000064e <serial_init>:
 64e:	4f 92       	push	r4
 650:	5f 92       	push	r5
 652:	6f 92       	push	r6
 654:	7f 92       	push	r7
 656:	8f 92       	push	r8
 658:	9f 92       	push	r9
 65a:	af 92       	push	r10
 65c:	bf 92       	push	r11
 65e:	cf 92       	push	r12
 660:	df 92       	push	r13
 662:	ef 92       	push	r14
 664:	ff 92       	push	r15
 666:	2b 01       	movw	r4, r22
 668:	3c 01       	movw	r6, r24
 66a:	fb d0       	rcall	.+502    	; 0x862 <timer_cpuf>
 66c:	6b 01       	movw	r12, r22
 66e:	7c 01       	movw	r14, r24
 670:	68 94       	set
 672:	13 f8       	bld	r1, 3
 674:	f6 94       	lsr	r15
 676:	e7 94       	ror	r14
 678:	d7 94       	ror	r13
 67a:	c7 94       	ror	r12
 67c:	16 94       	lsr	r1
 67e:	d1 f7       	brne	.-12     	; 0x674 <serial_init+0x26>
 680:	0f 2e       	mov	r0, r31
 682:	fa e0       	ldi	r31, 0x0A	; 10
 684:	8f 2e       	mov	r8, r31
 686:	91 2c       	mov	r9, r1
 688:	a1 2c       	mov	r10, r1
 68a:	b1 2c       	mov	r11, r1
 68c:	f0 2d       	mov	r31, r0
 68e:	c3 01       	movw	r24, r6
 690:	b2 01       	movw	r22, r4
 692:	a5 01       	movw	r20, r10
 694:	94 01       	movw	r18, r8
 696:	ea d0       	rcall	.+468    	; 0x86c <__udivmodsi4>
 698:	c7 01       	movw	r24, r14
 69a:	b6 01       	movw	r22, r12
 69c:	e7 d0       	rcall	.+462    	; 0x86c <__udivmodsi4>
 69e:	ca 01       	movw	r24, r20
 6a0:	b9 01       	movw	r22, r18
 6a2:	6b 5f       	subi	r22, 0xFB	; 251
 6a4:	7f 4f       	sbci	r23, 0xFF	; 255
 6a6:	8f 4f       	sbci	r24, 0xFF	; 255
 6a8:	9f 4f       	sbci	r25, 0xFF	; 255
 6aa:	a5 01       	movw	r20, r10
 6ac:	94 01       	movw	r18, r8
 6ae:	de d0       	rcall	.+444    	; 0x86c <__udivmodsi4>
 6b0:	ba 01       	movw	r22, r20
 6b2:	a9 01       	movw	r20, r18
 6b4:	41 50       	subi	r20, 0x01	; 1
 6b6:	51 09       	sbc	r21, r1
 6b8:	61 09       	sbc	r22, r1
 6ba:	71 09       	sbc	r23, r1
 6bc:	e1 ec       	ldi	r30, 0xC1	; 193
 6be:	f0 e0       	ldi	r31, 0x00	; 0
 6c0:	10 82       	st	Z, r1
 6c2:	10 92 c0 00 	sts	0x00C0, r1	; 0x8000c0 <__TEXT_REGION_LENGTH__+0x7e00c0>
 6c6:	86 e0       	ldi	r24, 0x06	; 6
 6c8:	80 93 c2 00 	sts	0x00C2, r24	; 0x8000c2 <__TEXT_REGION_LENGTH__+0x7e00c2>
 6cc:	85 2f       	mov	r24, r21
 6ce:	8f 70       	andi	r24, 0x0F	; 15
 6d0:	80 93 c5 00 	sts	0x00C5, r24	; 0x8000c5 <__TEXT_REGION_LENGTH__+0x7e00c5>
 6d4:	40 93 c4 00 	sts	0x00C4, r20	; 0x8000c4 <__TEXT_REGION_LENGTH__+0x7e00c4>
 6d8:	88 e1       	ldi	r24, 0x18	; 24
 6da:	80 83       	st	Z, r24
 6dc:	ea e6       	ldi	r30, 0x6A	; 106
 6de:	f3 e0       	ldi	r31, 0x03	; 3
 6e0:	81 e0       	ldi	r24, 0x01	; 1
 6e2:	92 e0       	ldi	r25, 0x02	; 2
 6e4:	93 83       	std	Z+3, r25	; 0x03
 6e6:	82 83       	std	Z+2, r24	; 0x02
 6e8:	91 83       	std	Z+1, r25	; 0x01
 6ea:	80 83       	st	Z, r24
 6ec:	95 83       	std	Z+5, r25	; 0x05
 6ee:	84 83       	std	Z+4, r24	; 0x04
 6f0:	81 e0       	ldi	r24, 0x01	; 1
 6f2:	80 93 65 03 	sts	0x0365, r24	; 0x800365 <serial_initialised>
 6f6:	ff 90       	pop	r15
 6f8:	ef 90       	pop	r14
 6fa:	df 90       	pop	r13
 6fc:	cf 90       	pop	r12
 6fe:	bf 90       	pop	r11
 700:	af 90       	pop	r10
 702:	9f 90       	pop	r9
 704:	8f 90       	pop	r8
 706:	7f 90       	pop	r7
 708:	6f 90       	pop	r6
 70a:	5f 90       	pop	r5
 70c:	4f 90       	pop	r4
 70e:	08 95       	ret

00000710 <serial_put>:
 710:	e0 ec       	ldi	r30, 0xC0	; 192
 712:	f0 e0       	ldi	r31, 0x00	; 0
 714:	90 81       	ld	r25, Z
 716:	95 ff       	sbrs	r25, 5
 718:	fd cf       	rjmp	.-6      	; 0x714 <serial_put+0x4>
 71a:	80 93 c6 00 	sts	0x00C6, r24	; 0x8000c6 <__TEXT_REGION_LENGTH__+0x7e00c6>
 71e:	08 95       	ret

00000720 <write>:
 720:	cf 93       	push	r28
 722:	c8 2f       	mov	r28, r24
 724:	f5 df       	rcall	.-22     	; 0x710 <serial_put>
 726:	8c 2f       	mov	r24, r28
 728:	90 e0       	ldi	r25, 0x00	; 0
 72a:	cf 91       	pop	r28
 72c:	08 95       	ret

0000072e <serial_get>:
 72e:	e0 ec       	ldi	r30, 0xC0	; 192
 730:	f0 e0       	ldi	r31, 0x00	; 0
 732:	80 81       	ld	r24, Z
 734:	88 23       	and	r24, r24
 736:	ec f7       	brge	.-6      	; 0x732 <serial_get+0x4>
 738:	80 91 c6 00 	lds	r24, 0x00C6	; 0x8000c6 <__TEXT_REGION_LENGTH__+0x7e00c6>
 73c:	08 95       	ret

0000073e <read>:
 73e:	cf 93       	push	r28
 740:	f6 df       	rcall	.-20     	; 0x72e <serial_get>
 742:	c8 2f       	mov	r28, r24
 744:	e5 df       	rcall	.-54     	; 0x710 <serial_put>
 746:	8c 2f       	mov	r24, r28
 748:	90 e0       	ldi	r25, 0x00	; 0
 74a:	cf 91       	pop	r28
 74c:	08 95       	ret

0000074e <time_millis>:
 74e:	60 91 66 03 	lds	r22, 0x0366	; 0x800366 <time_millis_count>
 752:	70 91 67 03 	lds	r23, 0x0367	; 0x800367 <time_millis_count+0x1>
 756:	80 91 68 03 	lds	r24, 0x0368	; 0x800368 <time_millis_count+0x2>
 75a:	90 91 69 03 	lds	r25, 0x0369	; 0x800369 <time_millis_count+0x3>
 75e:	08 95       	ret

00000760 <timer_init>:
 760:	10 92 80 00 	sts	0x0080, r1	; 0x800080 <__TEXT_REGION_LENGTH__+0x7e0080>
 764:	81 e0       	ldi	r24, 0x01	; 1
 766:	80 93 81 00 	sts	0x0081, r24	; 0x800081 <__TEXT_REGION_LENGTH__+0x7e0081>
 76a:	10 92 82 00 	sts	0x0082, r1	; 0x800082 <__TEXT_REGION_LENGTH__+0x7e0082>
 76e:	10 92 85 00 	sts	0x0085, r1	; 0x800085 <__TEXT_REGION_LENGTH__+0x7e0085>
 772:	10 92 84 00 	sts	0x0084, r1	; 0x800084 <__TEXT_REGION_LENGTH__+0x7e0084>
 776:	10 92 6f 00 	sts	0x006F, r1	; 0x80006f <__TEXT_REGION_LENGTH__+0x7e006f>
 77a:	08 95       	ret

0000077c <timer_start>:
 77c:	cf 93       	push	r28
 77e:	df 93       	push	r29
 780:	ec 01       	movw	r28, r24
 782:	ee df       	rcall	.-36     	; 0x760 <timer_init>
 784:	d0 93 85 00 	sts	0x0085, r29	; 0x800085 <__TEXT_REGION_LENGTH__+0x7e0085>
 788:	c0 93 84 00 	sts	0x0084, r28	; 0x800084 <__TEXT_REGION_LENGTH__+0x7e0084>
 78c:	df 91       	pop	r29
 78e:	cf 91       	pop	r28
 790:	08 95       	ret

00000792 <timer_overflow>:
 792:	96 b3       	in	r25, 0x16	; 22
 794:	81 e0       	ldi	r24, 0x01	; 1
 796:	29 2f       	mov	r18, r25
 798:	21 70       	andi	r18, 0x01	; 1
 79a:	90 ff       	sbrs	r25, 0
 79c:	80 e0       	ldi	r24, 0x00	; 0
 79e:	22 23       	and	r18, r18
 7a0:	11 f0       	breq	.+4      	; 0x7a6 <timer_overflow+0x14>
 7a2:	91 e0       	ldi	r25, 0x01	; 1
 7a4:	96 bb       	out	0x16, r25	; 22
 7a6:	08 95       	ret

000007a8 <timer_now>:
 7a8:	80 91 84 00 	lds	r24, 0x0084	; 0x800084 <__TEXT_REGION_LENGTH__+0x7e0084>
 7ac:	90 91 85 00 	lds	r25, 0x0085	; 0x800085 <__TEXT_REGION_LENGTH__+0x7e0085>
 7b0:	08 95       	ret

000007b2 <timer_wait_micro>:
 7b2:	8f 92       	push	r8
 7b4:	9f 92       	push	r9
 7b6:	af 92       	push	r10
 7b8:	bf 92       	push	r11
 7ba:	cf 92       	push	r12
 7bc:	df 92       	push	r13
 7be:	ef 92       	push	r14
 7c0:	ff 92       	push	r15
 7c2:	cf 93       	push	r28
 7c4:	df 93       	push	r29
 7c6:	4c 01       	movw	r8, r24
 7c8:	a1 2c       	mov	r10, r1
 7ca:	b1 2c       	mov	r11, r1
 7cc:	88 0c       	add	r8, r8
 7ce:	99 1c       	adc	r9, r9
 7d0:	aa 1c       	adc	r10, r10
 7d2:	bb 1c       	adc	r11, r11
 7d4:	88 0c       	add	r8, r8
 7d6:	99 1c       	adc	r9, r9
 7d8:	aa 1c       	adc	r10, r10
 7da:	bb 1c       	adc	r11, r11
 7dc:	88 0c       	add	r8, r8
 7de:	99 1c       	adc	r9, r9
 7e0:	aa 1c       	adc	r10, r10
 7e2:	bb 1c       	adc	r11, r11
 7e4:	88 0c       	add	r8, r8
 7e6:	99 1c       	adc	r9, r9
 7e8:	aa 1c       	adc	r10, r10
 7ea:	bb 1c       	adc	r11, r11
 7ec:	81 14       	cp	r8, r1
 7ee:	91 04       	cpc	r9, r1
 7f0:	81 e0       	ldi	r24, 0x01	; 1
 7f2:	a8 06       	cpc	r10, r24
 7f4:	b1 04       	cpc	r11, r1
 7f6:	00 f1       	brcs	.+64     	; 0x838 <timer_wait_micro+0x86>
 7f8:	75 01       	movw	r14, r10
 7fa:	64 01       	movw	r12, r8
 7fc:	c4 e8       	ldi	r28, 0x84	; 132
 7fe:	d0 e0       	ldi	r29, 0x00	; 0
 800:	af df       	rcall	.-162    	; 0x760 <timer_init>
 802:	19 82       	std	Y+1, r1	; 0x01
 804:	18 82       	st	Y, r1
 806:	81 e0       	ldi	r24, 0x01	; 1
 808:	e8 1a       	sub	r14, r24
 80a:	f1 08       	sbc	r15, r1
 80c:	c2 df       	rcall	.-124    	; 0x792 <timer_overflow>
 80e:	88 23       	and	r24, r24
 810:	e9 f3       	breq	.-6      	; 0x80c <timer_wait_micro+0x5a>
 812:	c1 14       	cp	r12, r1
 814:	d1 04       	cpc	r13, r1
 816:	81 e0       	ldi	r24, 0x01	; 1
 818:	e8 06       	cpc	r14, r24
 81a:	f1 04       	cpc	r15, r1
 81c:	88 f7       	brcc	.-30     	; 0x800 <timer_wait_micro+0x4e>
 81e:	81 e0       	ldi	r24, 0x01	; 1
 820:	a8 1a       	sub	r10, r24
 822:	b1 08       	sbc	r11, r1
 824:	95 01       	movw	r18, r10
 826:	44 27       	eor	r20, r20
 828:	55 27       	eor	r21, r21
 82a:	a0 e0       	ldi	r26, 0x00	; 0
 82c:	b0 e0       	ldi	r27, 0x00	; 0
 82e:	42 d0       	rcall	.+132    	; 0x8b4 <__mulohisi3>
 830:	86 0e       	add	r8, r22
 832:	97 1e       	adc	r9, r23
 834:	a8 1e       	adc	r10, r24
 836:	b9 1e       	adc	r11, r25
 838:	80 94       	com	r8
 83a:	90 94       	com	r9
 83c:	91 df       	rcall	.-222    	; 0x760 <timer_init>
 83e:	90 92 85 00 	sts	0x0085, r9	; 0x800085 <__TEXT_REGION_LENGTH__+0x7e0085>
 842:	80 92 84 00 	sts	0x0084, r8	; 0x800084 <__TEXT_REGION_LENGTH__+0x7e0084>
 846:	a5 df       	rcall	.-182    	; 0x792 <timer_overflow>
 848:	88 23       	and	r24, r24
 84a:	e9 f3       	breq	.-6      	; 0x846 <timer_wait_micro+0x94>
 84c:	df 91       	pop	r29
 84e:	cf 91       	pop	r28
 850:	ff 90       	pop	r15
 852:	ef 90       	pop	r14
 854:	df 90       	pop	r13
 856:	cf 90       	pop	r12
 858:	bf 90       	pop	r11
 85a:	af 90       	pop	r10
 85c:	9f 90       	pop	r9
 85e:	8f 90       	pop	r8
 860:	08 95       	ret

00000862 <timer_cpuf>:
 862:	60 e0       	ldi	r22, 0x00	; 0
 864:	74 e2       	ldi	r23, 0x24	; 36
 866:	84 ef       	ldi	r24, 0xF4	; 244
 868:	90 e0       	ldi	r25, 0x00	; 0
 86a:	08 95       	ret

0000086c <__udivmodsi4>:
 86c:	a1 e2       	ldi	r26, 0x21	; 33
 86e:	1a 2e       	mov	r1, r26
 870:	aa 1b       	sub	r26, r26
 872:	bb 1b       	sub	r27, r27
 874:	fd 01       	movw	r30, r26
 876:	0d c0       	rjmp	.+26     	; 0x892 <__udivmodsi4_ep>

00000878 <__udivmodsi4_loop>:
 878:	aa 1f       	adc	r26, r26
 87a:	bb 1f       	adc	r27, r27
 87c:	ee 1f       	adc	r30, r30
 87e:	ff 1f       	adc	r31, r31
 880:	a2 17       	cp	r26, r18
 882:	b3 07       	cpc	r27, r19
 884:	e4 07       	cpc	r30, r20
 886:	f5 07       	cpc	r31, r21
 888:	20 f0       	brcs	.+8      	; 0x892 <__udivmodsi4_ep>
 88a:	a2 1b       	sub	r26, r18
 88c:	b3 0b       	sbc	r27, r19
 88e:	e4 0b       	sbc	r30, r20
 890:	f5 0b       	sbc	r31, r21

00000892 <__udivmodsi4_ep>:
 892:	66 1f       	adc	r22, r22
 894:	77 1f       	adc	r23, r23
 896:	88 1f       	adc	r24, r24
 898:	99 1f       	adc	r25, r25
 89a:	1a 94       	dec	r1
 89c:	69 f7       	brne	.-38     	; 0x878 <__udivmodsi4_loop>
 89e:	60 95       	com	r22
 8a0:	70 95       	com	r23
 8a2:	80 95       	com	r24
 8a4:	90 95       	com	r25
 8a6:	9b 01       	movw	r18, r22
 8a8:	ac 01       	movw	r20, r24
 8aa:	bd 01       	movw	r22, r26
 8ac:	cf 01       	movw	r24, r30
 8ae:	08 95       	ret

000008b0 <__mulshisi3>:
 8b0:	b7 ff       	sbrs	r27, 7
 8b2:	04 c0       	rjmp	.+8      	; 0x8bc <__muluhisi3>

000008b4 <__mulohisi3>:
 8b4:	03 d0       	rcall	.+6      	; 0x8bc <__muluhisi3>
 8b6:	82 1b       	sub	r24, r18
 8b8:	93 0b       	sbc	r25, r19
 8ba:	08 95       	ret

000008bc <__muluhisi3>:
 8bc:	09 d0       	rcall	.+18     	; 0x8d0 <__umulhisi3>
 8be:	a5 9f       	mul	r26, r21
 8c0:	90 0d       	add	r25, r0
 8c2:	b4 9f       	mul	r27, r20
 8c4:	90 0d       	add	r25, r0
 8c6:	a4 9f       	mul	r26, r20
 8c8:	80 0d       	add	r24, r0
 8ca:	91 1d       	adc	r25, r1
 8cc:	11 24       	eor	r1, r1
 8ce:	08 95       	ret

000008d0 <__umulhisi3>:
 8d0:	a2 9f       	mul	r26, r18
 8d2:	b0 01       	movw	r22, r0
 8d4:	b3 9f       	mul	r27, r19
 8d6:	c0 01       	movw	r24, r0
 8d8:	a3 9f       	mul	r26, r19
 8da:	70 0d       	add	r23, r0
 8dc:	81 1d       	adc	r24, r1
 8de:	11 24       	eor	r1, r1
 8e0:	91 1d       	adc	r25, r1
 8e2:	b2 9f       	mul	r27, r18
 8e4:	70 0d       	add	r23, r0
 8e6:	81 1d       	adc	r24, r1
 8e8:	11 24       	eor	r1, r1
 8ea:	91 1d       	adc	r25, r1
 8ec:	08 95       	ret

000008ee <printf>:
 8ee:	cf 93       	push	r28
 8f0:	df 93       	push	r29
 8f2:	cd b7       	in	r28, 0x3d	; 61
 8f4:	de b7       	in	r29, 0x3e	; 62
 8f6:	ae 01       	movw	r20, r28
 8f8:	4b 5f       	subi	r20, 0xFB	; 251
 8fa:	5f 4f       	sbci	r21, 0xFF	; 255
 8fc:	fa 01       	movw	r30, r20
 8fe:	61 91       	ld	r22, Z+
 900:	71 91       	ld	r23, Z+
 902:	af 01       	movw	r20, r30
 904:	80 91 6c 03 	lds	r24, 0x036C	; 0x80036c <__iob+0x2>
 908:	90 91 6d 03 	lds	r25, 0x036D	; 0x80036d <__iob+0x3>
 90c:	33 d0       	rcall	.+102    	; 0x974 <vfprintf>
 90e:	df 91       	pop	r29
 910:	cf 91       	pop	r28
 912:	08 95       	ret

00000914 <puts>:
 914:	0f 93       	push	r16
 916:	1f 93       	push	r17
 918:	cf 93       	push	r28
 91a:	df 93       	push	r29
 91c:	e0 91 6c 03 	lds	r30, 0x036C	; 0x80036c <__iob+0x2>
 920:	f0 91 6d 03 	lds	r31, 0x036D	; 0x80036d <__iob+0x3>
 924:	23 81       	ldd	r18, Z+3	; 0x03
 926:	21 ff       	sbrs	r18, 1
 928:	1b c0       	rjmp	.+54     	; 0x960 <puts+0x4c>
 92a:	8c 01       	movw	r16, r24
 92c:	d0 e0       	ldi	r29, 0x00	; 0
 92e:	c0 e0       	ldi	r28, 0x00	; 0
 930:	f8 01       	movw	r30, r16
 932:	81 91       	ld	r24, Z+
 934:	8f 01       	movw	r16, r30
 936:	60 91 6c 03 	lds	r22, 0x036C	; 0x80036c <__iob+0x2>
 93a:	70 91 6d 03 	lds	r23, 0x036D	; 0x80036d <__iob+0x3>
 93e:	db 01       	movw	r26, r22
 940:	18 96       	adiw	r26, 0x08	; 8
 942:	ed 91       	ld	r30, X+
 944:	fc 91       	ld	r31, X
 946:	19 97       	sbiw	r26, 0x09	; 9
 948:	88 23       	and	r24, r24
 94a:	31 f0       	breq	.+12     	; 0x958 <puts+0x44>
 94c:	09 95       	icall
 94e:	89 2b       	or	r24, r25
 950:	79 f3       	breq	.-34     	; 0x930 <puts+0x1c>
 952:	df ef       	ldi	r29, 0xFF	; 255
 954:	cf ef       	ldi	r28, 0xFF	; 255
 956:	ec cf       	rjmp	.-40     	; 0x930 <puts+0x1c>
 958:	8a e0       	ldi	r24, 0x0A	; 10
 95a:	09 95       	icall
 95c:	89 2b       	or	r24, r25
 95e:	19 f0       	breq	.+6      	; 0x966 <puts+0x52>
 960:	8f ef       	ldi	r24, 0xFF	; 255
 962:	9f ef       	ldi	r25, 0xFF	; 255
 964:	02 c0       	rjmp	.+4      	; 0x96a <puts+0x56>
 966:	8d 2f       	mov	r24, r29
 968:	9c 2f       	mov	r25, r28
 96a:	df 91       	pop	r29
 96c:	cf 91       	pop	r28
 96e:	1f 91       	pop	r17
 970:	0f 91       	pop	r16
 972:	08 95       	ret

00000974 <vfprintf>:
 974:	2f 92       	push	r2
 976:	3f 92       	push	r3
 978:	4f 92       	push	r4
 97a:	5f 92       	push	r5
 97c:	6f 92       	push	r6
 97e:	7f 92       	push	r7
 980:	8f 92       	push	r8
 982:	9f 92       	push	r9
 984:	af 92       	push	r10
 986:	bf 92       	push	r11
 988:	cf 92       	push	r12
 98a:	df 92       	push	r13
 98c:	ef 92       	push	r14
 98e:	ff 92       	push	r15
 990:	0f 93       	push	r16
 992:	1f 93       	push	r17
 994:	cf 93       	push	r28
 996:	df 93       	push	r29
 998:	cd b7       	in	r28, 0x3d	; 61
 99a:	de b7       	in	r29, 0x3e	; 62
 99c:	2b 97       	sbiw	r28, 0x0b	; 11
 99e:	0f b6       	in	r0, 0x3f	; 63
 9a0:	f8 94       	cli
 9a2:	de bf       	out	0x3e, r29	; 62
 9a4:	0f be       	out	0x3f, r0	; 63
 9a6:	cd bf       	out	0x3d, r28	; 61
 9a8:	6c 01       	movw	r12, r24
 9aa:	7b 01       	movw	r14, r22
 9ac:	8a 01       	movw	r16, r20
 9ae:	fc 01       	movw	r30, r24
 9b0:	17 82       	std	Z+7, r1	; 0x07
 9b2:	16 82       	std	Z+6, r1	; 0x06
 9b4:	83 81       	ldd	r24, Z+3	; 0x03
 9b6:	81 ff       	sbrs	r24, 1
 9b8:	bf c1       	rjmp	.+894    	; 0xd38 <vfprintf+0x3c4>
 9ba:	ce 01       	movw	r24, r28
 9bc:	01 96       	adiw	r24, 0x01	; 1
 9be:	3c 01       	movw	r6, r24
 9c0:	f6 01       	movw	r30, r12
 9c2:	93 81       	ldd	r25, Z+3	; 0x03
 9c4:	f7 01       	movw	r30, r14
 9c6:	93 fd       	sbrc	r25, 3
 9c8:	85 91       	lpm	r24, Z+
 9ca:	93 ff       	sbrs	r25, 3
 9cc:	81 91       	ld	r24, Z+
 9ce:	7f 01       	movw	r14, r30
 9d0:	88 23       	and	r24, r24
 9d2:	09 f4       	brne	.+2      	; 0x9d6 <vfprintf+0x62>
 9d4:	ad c1       	rjmp	.+858    	; 0xd30 <vfprintf+0x3bc>
 9d6:	85 32       	cpi	r24, 0x25	; 37
 9d8:	39 f4       	brne	.+14     	; 0x9e8 <vfprintf+0x74>
 9da:	93 fd       	sbrc	r25, 3
 9dc:	85 91       	lpm	r24, Z+
 9de:	93 ff       	sbrs	r25, 3
 9e0:	81 91       	ld	r24, Z+
 9e2:	7f 01       	movw	r14, r30
 9e4:	85 32       	cpi	r24, 0x25	; 37
 9e6:	21 f4       	brne	.+8      	; 0x9f0 <vfprintf+0x7c>
 9e8:	b6 01       	movw	r22, r12
 9ea:	90 e0       	ldi	r25, 0x00	; 0
 9ec:	d6 d1       	rcall	.+940    	; 0xd9a <fputc>
 9ee:	e8 cf       	rjmp	.-48     	; 0x9c0 <vfprintf+0x4c>
 9f0:	91 2c       	mov	r9, r1
 9f2:	21 2c       	mov	r2, r1
 9f4:	31 2c       	mov	r3, r1
 9f6:	ff e1       	ldi	r31, 0x1F	; 31
 9f8:	f3 15       	cp	r31, r3
 9fa:	d8 f0       	brcs	.+54     	; 0xa32 <vfprintf+0xbe>
 9fc:	8b 32       	cpi	r24, 0x2B	; 43
 9fe:	79 f0       	breq	.+30     	; 0xa1e <vfprintf+0xaa>
 a00:	38 f4       	brcc	.+14     	; 0xa10 <vfprintf+0x9c>
 a02:	80 32       	cpi	r24, 0x20	; 32
 a04:	79 f0       	breq	.+30     	; 0xa24 <vfprintf+0xb0>
 a06:	83 32       	cpi	r24, 0x23	; 35
 a08:	a1 f4       	brne	.+40     	; 0xa32 <vfprintf+0xbe>
 a0a:	23 2d       	mov	r18, r3
 a0c:	20 61       	ori	r18, 0x10	; 16
 a0e:	1d c0       	rjmp	.+58     	; 0xa4a <vfprintf+0xd6>
 a10:	8d 32       	cpi	r24, 0x2D	; 45
 a12:	61 f0       	breq	.+24     	; 0xa2c <vfprintf+0xb8>
 a14:	80 33       	cpi	r24, 0x30	; 48
 a16:	69 f4       	brne	.+26     	; 0xa32 <vfprintf+0xbe>
 a18:	23 2d       	mov	r18, r3
 a1a:	21 60       	ori	r18, 0x01	; 1
 a1c:	16 c0       	rjmp	.+44     	; 0xa4a <vfprintf+0xd6>
 a1e:	83 2d       	mov	r24, r3
 a20:	82 60       	ori	r24, 0x02	; 2
 a22:	38 2e       	mov	r3, r24
 a24:	e3 2d       	mov	r30, r3
 a26:	e4 60       	ori	r30, 0x04	; 4
 a28:	3e 2e       	mov	r3, r30
 a2a:	2a c0       	rjmp	.+84     	; 0xa80 <vfprintf+0x10c>
 a2c:	f3 2d       	mov	r31, r3
 a2e:	f8 60       	ori	r31, 0x08	; 8
 a30:	1d c0       	rjmp	.+58     	; 0xa6c <vfprintf+0xf8>
 a32:	37 fc       	sbrc	r3, 7
 a34:	2d c0       	rjmp	.+90     	; 0xa90 <vfprintf+0x11c>
 a36:	20 ed       	ldi	r18, 0xD0	; 208
 a38:	28 0f       	add	r18, r24
 a3a:	2a 30       	cpi	r18, 0x0A	; 10
 a3c:	40 f0       	brcs	.+16     	; 0xa4e <vfprintf+0xda>
 a3e:	8e 32       	cpi	r24, 0x2E	; 46
 a40:	b9 f4       	brne	.+46     	; 0xa70 <vfprintf+0xfc>
 a42:	36 fc       	sbrc	r3, 6
 a44:	75 c1       	rjmp	.+746    	; 0xd30 <vfprintf+0x3bc>
 a46:	23 2d       	mov	r18, r3
 a48:	20 64       	ori	r18, 0x40	; 64
 a4a:	32 2e       	mov	r3, r18
 a4c:	19 c0       	rjmp	.+50     	; 0xa80 <vfprintf+0x10c>
 a4e:	36 fe       	sbrs	r3, 6
 a50:	06 c0       	rjmp	.+12     	; 0xa5e <vfprintf+0xea>
 a52:	8a e0       	ldi	r24, 0x0A	; 10
 a54:	98 9e       	mul	r9, r24
 a56:	20 0d       	add	r18, r0
 a58:	11 24       	eor	r1, r1
 a5a:	92 2e       	mov	r9, r18
 a5c:	11 c0       	rjmp	.+34     	; 0xa80 <vfprintf+0x10c>
 a5e:	ea e0       	ldi	r30, 0x0A	; 10
 a60:	2e 9e       	mul	r2, r30
 a62:	20 0d       	add	r18, r0
 a64:	11 24       	eor	r1, r1
 a66:	22 2e       	mov	r2, r18
 a68:	f3 2d       	mov	r31, r3
 a6a:	f0 62       	ori	r31, 0x20	; 32
 a6c:	3f 2e       	mov	r3, r31
 a6e:	08 c0       	rjmp	.+16     	; 0xa80 <vfprintf+0x10c>
 a70:	8c 36       	cpi	r24, 0x6C	; 108
 a72:	21 f4       	brne	.+8      	; 0xa7c <vfprintf+0x108>
 a74:	83 2d       	mov	r24, r3
 a76:	80 68       	ori	r24, 0x80	; 128
 a78:	38 2e       	mov	r3, r24
 a7a:	02 c0       	rjmp	.+4      	; 0xa80 <vfprintf+0x10c>
 a7c:	88 36       	cpi	r24, 0x68	; 104
 a7e:	41 f4       	brne	.+16     	; 0xa90 <vfprintf+0x11c>
 a80:	f7 01       	movw	r30, r14
 a82:	93 fd       	sbrc	r25, 3
 a84:	85 91       	lpm	r24, Z+
 a86:	93 ff       	sbrs	r25, 3
 a88:	81 91       	ld	r24, Z+
 a8a:	7f 01       	movw	r14, r30
 a8c:	81 11       	cpse	r24, r1
 a8e:	b3 cf       	rjmp	.-154    	; 0x9f6 <vfprintf+0x82>
 a90:	98 2f       	mov	r25, r24
 a92:	9f 7d       	andi	r25, 0xDF	; 223
 a94:	95 54       	subi	r25, 0x45	; 69
 a96:	93 30       	cpi	r25, 0x03	; 3
 a98:	28 f4       	brcc	.+10     	; 0xaa4 <vfprintf+0x130>
 a9a:	0c 5f       	subi	r16, 0xFC	; 252
 a9c:	1f 4f       	sbci	r17, 0xFF	; 255
 a9e:	9f e3       	ldi	r25, 0x3F	; 63
 aa0:	99 83       	std	Y+1, r25	; 0x01
 aa2:	0d c0       	rjmp	.+26     	; 0xabe <vfprintf+0x14a>
 aa4:	83 36       	cpi	r24, 0x63	; 99
 aa6:	31 f0       	breq	.+12     	; 0xab4 <vfprintf+0x140>
 aa8:	83 37       	cpi	r24, 0x73	; 115
 aaa:	71 f0       	breq	.+28     	; 0xac8 <vfprintf+0x154>
 aac:	83 35       	cpi	r24, 0x53	; 83
 aae:	09 f0       	breq	.+2      	; 0xab2 <vfprintf+0x13e>
 ab0:	55 c0       	rjmp	.+170    	; 0xb5c <vfprintf+0x1e8>
 ab2:	20 c0       	rjmp	.+64     	; 0xaf4 <vfprintf+0x180>
 ab4:	f8 01       	movw	r30, r16
 ab6:	80 81       	ld	r24, Z
 ab8:	89 83       	std	Y+1, r24	; 0x01
 aba:	0e 5f       	subi	r16, 0xFE	; 254
 abc:	1f 4f       	sbci	r17, 0xFF	; 255
 abe:	88 24       	eor	r8, r8
 ac0:	83 94       	inc	r8
 ac2:	91 2c       	mov	r9, r1
 ac4:	53 01       	movw	r10, r6
 ac6:	12 c0       	rjmp	.+36     	; 0xaec <vfprintf+0x178>
 ac8:	28 01       	movw	r4, r16
 aca:	f2 e0       	ldi	r31, 0x02	; 2
 acc:	4f 0e       	add	r4, r31
 ace:	51 1c       	adc	r5, r1
 ad0:	f8 01       	movw	r30, r16
 ad2:	a0 80       	ld	r10, Z
 ad4:	b1 80       	ldd	r11, Z+1	; 0x01
 ad6:	36 fe       	sbrs	r3, 6
 ad8:	03 c0       	rjmp	.+6      	; 0xae0 <vfprintf+0x16c>
 ada:	69 2d       	mov	r22, r9
 adc:	70 e0       	ldi	r23, 0x00	; 0
 ade:	02 c0       	rjmp	.+4      	; 0xae4 <vfprintf+0x170>
 ae0:	6f ef       	ldi	r22, 0xFF	; 255
 ae2:	7f ef       	ldi	r23, 0xFF	; 255
 ae4:	c5 01       	movw	r24, r10
 ae6:	4e d1       	rcall	.+668    	; 0xd84 <strnlen>
 ae8:	4c 01       	movw	r8, r24
 aea:	82 01       	movw	r16, r4
 aec:	f3 2d       	mov	r31, r3
 aee:	ff 77       	andi	r31, 0x7F	; 127
 af0:	3f 2e       	mov	r3, r31
 af2:	15 c0       	rjmp	.+42     	; 0xb1e <vfprintf+0x1aa>
 af4:	28 01       	movw	r4, r16
 af6:	22 e0       	ldi	r18, 0x02	; 2
 af8:	42 0e       	add	r4, r18
 afa:	51 1c       	adc	r5, r1
 afc:	f8 01       	movw	r30, r16
 afe:	a0 80       	ld	r10, Z
 b00:	b1 80       	ldd	r11, Z+1	; 0x01
 b02:	36 fe       	sbrs	r3, 6
 b04:	03 c0       	rjmp	.+6      	; 0xb0c <vfprintf+0x198>
 b06:	69 2d       	mov	r22, r9
 b08:	70 e0       	ldi	r23, 0x00	; 0
 b0a:	02 c0       	rjmp	.+4      	; 0xb10 <vfprintf+0x19c>
 b0c:	6f ef       	ldi	r22, 0xFF	; 255
 b0e:	7f ef       	ldi	r23, 0xFF	; 255
 b10:	c5 01       	movw	r24, r10
 b12:	2d d1       	rcall	.+602    	; 0xd6e <strnlen_P>
 b14:	4c 01       	movw	r8, r24
 b16:	f3 2d       	mov	r31, r3
 b18:	f0 68       	ori	r31, 0x80	; 128
 b1a:	3f 2e       	mov	r3, r31
 b1c:	82 01       	movw	r16, r4
 b1e:	33 fc       	sbrc	r3, 3
 b20:	19 c0       	rjmp	.+50     	; 0xb54 <vfprintf+0x1e0>
 b22:	82 2d       	mov	r24, r2
 b24:	90 e0       	ldi	r25, 0x00	; 0
 b26:	88 16       	cp	r8, r24
 b28:	99 06       	cpc	r9, r25
 b2a:	a0 f4       	brcc	.+40     	; 0xb54 <vfprintf+0x1e0>
 b2c:	b6 01       	movw	r22, r12
 b2e:	80 e2       	ldi	r24, 0x20	; 32
 b30:	90 e0       	ldi	r25, 0x00	; 0
 b32:	33 d1       	rcall	.+614    	; 0xd9a <fputc>
 b34:	2a 94       	dec	r2
 b36:	f5 cf       	rjmp	.-22     	; 0xb22 <vfprintf+0x1ae>
 b38:	f5 01       	movw	r30, r10
 b3a:	37 fc       	sbrc	r3, 7
 b3c:	85 91       	lpm	r24, Z+
 b3e:	37 fe       	sbrs	r3, 7
 b40:	81 91       	ld	r24, Z+
 b42:	5f 01       	movw	r10, r30
 b44:	b6 01       	movw	r22, r12
 b46:	90 e0       	ldi	r25, 0x00	; 0
 b48:	28 d1       	rcall	.+592    	; 0xd9a <fputc>
 b4a:	21 10       	cpse	r2, r1
 b4c:	2a 94       	dec	r2
 b4e:	21 e0       	ldi	r18, 0x01	; 1
 b50:	82 1a       	sub	r8, r18
 b52:	91 08       	sbc	r9, r1
 b54:	81 14       	cp	r8, r1
 b56:	91 04       	cpc	r9, r1
 b58:	79 f7       	brne	.-34     	; 0xb38 <vfprintf+0x1c4>
 b5a:	e1 c0       	rjmp	.+450    	; 0xd1e <vfprintf+0x3aa>
 b5c:	84 36       	cpi	r24, 0x64	; 100
 b5e:	11 f0       	breq	.+4      	; 0xb64 <vfprintf+0x1f0>
 b60:	89 36       	cpi	r24, 0x69	; 105
 b62:	39 f5       	brne	.+78     	; 0xbb2 <vfprintf+0x23e>
 b64:	f8 01       	movw	r30, r16
 b66:	37 fe       	sbrs	r3, 7
 b68:	07 c0       	rjmp	.+14     	; 0xb78 <vfprintf+0x204>
 b6a:	60 81       	ld	r22, Z
 b6c:	71 81       	ldd	r23, Z+1	; 0x01
 b6e:	82 81       	ldd	r24, Z+2	; 0x02
 b70:	93 81       	ldd	r25, Z+3	; 0x03
 b72:	0c 5f       	subi	r16, 0xFC	; 252
 b74:	1f 4f       	sbci	r17, 0xFF	; 255
 b76:	08 c0       	rjmp	.+16     	; 0xb88 <vfprintf+0x214>
 b78:	60 81       	ld	r22, Z
 b7a:	71 81       	ldd	r23, Z+1	; 0x01
 b7c:	07 2e       	mov	r0, r23
 b7e:	00 0c       	add	r0, r0
 b80:	88 0b       	sbc	r24, r24
 b82:	99 0b       	sbc	r25, r25
 b84:	0e 5f       	subi	r16, 0xFE	; 254
 b86:	1f 4f       	sbci	r17, 0xFF	; 255
 b88:	f3 2d       	mov	r31, r3
 b8a:	ff 76       	andi	r31, 0x6F	; 111
 b8c:	3f 2e       	mov	r3, r31
 b8e:	97 ff       	sbrs	r25, 7
 b90:	09 c0       	rjmp	.+18     	; 0xba4 <vfprintf+0x230>
 b92:	90 95       	com	r25
 b94:	80 95       	com	r24
 b96:	70 95       	com	r23
 b98:	61 95       	neg	r22
 b9a:	7f 4f       	sbci	r23, 0xFF	; 255
 b9c:	8f 4f       	sbci	r24, 0xFF	; 255
 b9e:	9f 4f       	sbci	r25, 0xFF	; 255
 ba0:	f0 68       	ori	r31, 0x80	; 128
 ba2:	3f 2e       	mov	r3, r31
 ba4:	2a e0       	ldi	r18, 0x0A	; 10
 ba6:	30 e0       	ldi	r19, 0x00	; 0
 ba8:	a3 01       	movw	r20, r6
 baa:	33 d1       	rcall	.+614    	; 0xe12 <__ultoa_invert>
 bac:	88 2e       	mov	r8, r24
 bae:	86 18       	sub	r8, r6
 bb0:	44 c0       	rjmp	.+136    	; 0xc3a <vfprintf+0x2c6>
 bb2:	85 37       	cpi	r24, 0x75	; 117
 bb4:	31 f4       	brne	.+12     	; 0xbc2 <vfprintf+0x24e>
 bb6:	23 2d       	mov	r18, r3
 bb8:	2f 7e       	andi	r18, 0xEF	; 239
 bba:	b2 2e       	mov	r11, r18
 bbc:	2a e0       	ldi	r18, 0x0A	; 10
 bbe:	30 e0       	ldi	r19, 0x00	; 0
 bc0:	25 c0       	rjmp	.+74     	; 0xc0c <vfprintf+0x298>
 bc2:	93 2d       	mov	r25, r3
 bc4:	99 7f       	andi	r25, 0xF9	; 249
 bc6:	b9 2e       	mov	r11, r25
 bc8:	8f 36       	cpi	r24, 0x6F	; 111
 bca:	c1 f0       	breq	.+48     	; 0xbfc <vfprintf+0x288>
 bcc:	18 f4       	brcc	.+6      	; 0xbd4 <vfprintf+0x260>
 bce:	88 35       	cpi	r24, 0x58	; 88
 bd0:	79 f0       	breq	.+30     	; 0xbf0 <vfprintf+0x27c>
 bd2:	ae c0       	rjmp	.+348    	; 0xd30 <vfprintf+0x3bc>
 bd4:	80 37       	cpi	r24, 0x70	; 112
 bd6:	19 f0       	breq	.+6      	; 0xbde <vfprintf+0x26a>
 bd8:	88 37       	cpi	r24, 0x78	; 120
 bda:	21 f0       	breq	.+8      	; 0xbe4 <vfprintf+0x270>
 bdc:	a9 c0       	rjmp	.+338    	; 0xd30 <vfprintf+0x3bc>
 bde:	e9 2f       	mov	r30, r25
 be0:	e0 61       	ori	r30, 0x10	; 16
 be2:	be 2e       	mov	r11, r30
 be4:	b4 fe       	sbrs	r11, 4
 be6:	0d c0       	rjmp	.+26     	; 0xc02 <vfprintf+0x28e>
 be8:	fb 2d       	mov	r31, r11
 bea:	f4 60       	ori	r31, 0x04	; 4
 bec:	bf 2e       	mov	r11, r31
 bee:	09 c0       	rjmp	.+18     	; 0xc02 <vfprintf+0x28e>
 bf0:	34 fe       	sbrs	r3, 4
 bf2:	0a c0       	rjmp	.+20     	; 0xc08 <vfprintf+0x294>
 bf4:	29 2f       	mov	r18, r25
 bf6:	26 60       	ori	r18, 0x06	; 6
 bf8:	b2 2e       	mov	r11, r18
 bfa:	06 c0       	rjmp	.+12     	; 0xc08 <vfprintf+0x294>
 bfc:	28 e0       	ldi	r18, 0x08	; 8
 bfe:	30 e0       	ldi	r19, 0x00	; 0
 c00:	05 c0       	rjmp	.+10     	; 0xc0c <vfprintf+0x298>
 c02:	20 e1       	ldi	r18, 0x10	; 16
 c04:	30 e0       	ldi	r19, 0x00	; 0
 c06:	02 c0       	rjmp	.+4      	; 0xc0c <vfprintf+0x298>
 c08:	20 e1       	ldi	r18, 0x10	; 16
 c0a:	32 e0       	ldi	r19, 0x02	; 2
 c0c:	f8 01       	movw	r30, r16
 c0e:	b7 fe       	sbrs	r11, 7
 c10:	07 c0       	rjmp	.+14     	; 0xc20 <vfprintf+0x2ac>
 c12:	60 81       	ld	r22, Z
 c14:	71 81       	ldd	r23, Z+1	; 0x01
 c16:	82 81       	ldd	r24, Z+2	; 0x02
 c18:	93 81       	ldd	r25, Z+3	; 0x03
 c1a:	0c 5f       	subi	r16, 0xFC	; 252
 c1c:	1f 4f       	sbci	r17, 0xFF	; 255
 c1e:	06 c0       	rjmp	.+12     	; 0xc2c <vfprintf+0x2b8>
 c20:	60 81       	ld	r22, Z
 c22:	71 81       	ldd	r23, Z+1	; 0x01
 c24:	80 e0       	ldi	r24, 0x00	; 0
 c26:	90 e0       	ldi	r25, 0x00	; 0
 c28:	0e 5f       	subi	r16, 0xFE	; 254
 c2a:	1f 4f       	sbci	r17, 0xFF	; 255
 c2c:	a3 01       	movw	r20, r6
 c2e:	f1 d0       	rcall	.+482    	; 0xe12 <__ultoa_invert>
 c30:	88 2e       	mov	r8, r24
 c32:	86 18       	sub	r8, r6
 c34:	fb 2d       	mov	r31, r11
 c36:	ff 77       	andi	r31, 0x7F	; 127
 c38:	3f 2e       	mov	r3, r31
 c3a:	36 fe       	sbrs	r3, 6
 c3c:	0d c0       	rjmp	.+26     	; 0xc58 <vfprintf+0x2e4>
 c3e:	23 2d       	mov	r18, r3
 c40:	2e 7f       	andi	r18, 0xFE	; 254
 c42:	a2 2e       	mov	r10, r18
 c44:	89 14       	cp	r8, r9
 c46:	58 f4       	brcc	.+22     	; 0xc5e <vfprintf+0x2ea>
 c48:	34 fe       	sbrs	r3, 4
 c4a:	0b c0       	rjmp	.+22     	; 0xc62 <vfprintf+0x2ee>
 c4c:	32 fc       	sbrc	r3, 2
 c4e:	09 c0       	rjmp	.+18     	; 0xc62 <vfprintf+0x2ee>
 c50:	83 2d       	mov	r24, r3
 c52:	8e 7e       	andi	r24, 0xEE	; 238
 c54:	a8 2e       	mov	r10, r24
 c56:	05 c0       	rjmp	.+10     	; 0xc62 <vfprintf+0x2ee>
 c58:	b8 2c       	mov	r11, r8
 c5a:	a3 2c       	mov	r10, r3
 c5c:	03 c0       	rjmp	.+6      	; 0xc64 <vfprintf+0x2f0>
 c5e:	b8 2c       	mov	r11, r8
 c60:	01 c0       	rjmp	.+2      	; 0xc64 <vfprintf+0x2f0>
 c62:	b9 2c       	mov	r11, r9
 c64:	a4 fe       	sbrs	r10, 4
 c66:	0f c0       	rjmp	.+30     	; 0xc86 <vfprintf+0x312>
 c68:	fe 01       	movw	r30, r28
 c6a:	e8 0d       	add	r30, r8
 c6c:	f1 1d       	adc	r31, r1
 c6e:	80 81       	ld	r24, Z
 c70:	80 33       	cpi	r24, 0x30	; 48
 c72:	21 f4       	brne	.+8      	; 0xc7c <vfprintf+0x308>
 c74:	9a 2d       	mov	r25, r10
 c76:	99 7e       	andi	r25, 0xE9	; 233
 c78:	a9 2e       	mov	r10, r25
 c7a:	09 c0       	rjmp	.+18     	; 0xc8e <vfprintf+0x31a>
 c7c:	a2 fe       	sbrs	r10, 2
 c7e:	06 c0       	rjmp	.+12     	; 0xc8c <vfprintf+0x318>
 c80:	b3 94       	inc	r11
 c82:	b3 94       	inc	r11
 c84:	04 c0       	rjmp	.+8      	; 0xc8e <vfprintf+0x31a>
 c86:	8a 2d       	mov	r24, r10
 c88:	86 78       	andi	r24, 0x86	; 134
 c8a:	09 f0       	breq	.+2      	; 0xc8e <vfprintf+0x31a>
 c8c:	b3 94       	inc	r11
 c8e:	a3 fc       	sbrc	r10, 3
 c90:	10 c0       	rjmp	.+32     	; 0xcb2 <vfprintf+0x33e>
 c92:	a0 fe       	sbrs	r10, 0
 c94:	06 c0       	rjmp	.+12     	; 0xca2 <vfprintf+0x32e>
 c96:	b2 14       	cp	r11, r2
 c98:	80 f4       	brcc	.+32     	; 0xcba <vfprintf+0x346>
 c9a:	28 0c       	add	r2, r8
 c9c:	92 2c       	mov	r9, r2
 c9e:	9b 18       	sub	r9, r11
 ca0:	0d c0       	rjmp	.+26     	; 0xcbc <vfprintf+0x348>
 ca2:	b2 14       	cp	r11, r2
 ca4:	58 f4       	brcc	.+22     	; 0xcbc <vfprintf+0x348>
 ca6:	b6 01       	movw	r22, r12
 ca8:	80 e2       	ldi	r24, 0x20	; 32
 caa:	90 e0       	ldi	r25, 0x00	; 0
 cac:	76 d0       	rcall	.+236    	; 0xd9a <fputc>
 cae:	b3 94       	inc	r11
 cb0:	f8 cf       	rjmp	.-16     	; 0xca2 <vfprintf+0x32e>
 cb2:	b2 14       	cp	r11, r2
 cb4:	18 f4       	brcc	.+6      	; 0xcbc <vfprintf+0x348>
 cb6:	2b 18       	sub	r2, r11
 cb8:	02 c0       	rjmp	.+4      	; 0xcbe <vfprintf+0x34a>
 cba:	98 2c       	mov	r9, r8
 cbc:	21 2c       	mov	r2, r1
 cbe:	a4 fe       	sbrs	r10, 4
 cc0:	0f c0       	rjmp	.+30     	; 0xce0 <vfprintf+0x36c>
 cc2:	b6 01       	movw	r22, r12
 cc4:	80 e3       	ldi	r24, 0x30	; 48
 cc6:	90 e0       	ldi	r25, 0x00	; 0
 cc8:	68 d0       	rcall	.+208    	; 0xd9a <fputc>
 cca:	a2 fe       	sbrs	r10, 2
 ccc:	16 c0       	rjmp	.+44     	; 0xcfa <vfprintf+0x386>
 cce:	a1 fc       	sbrc	r10, 1
 cd0:	03 c0       	rjmp	.+6      	; 0xcd8 <vfprintf+0x364>
 cd2:	88 e7       	ldi	r24, 0x78	; 120
 cd4:	90 e0       	ldi	r25, 0x00	; 0
 cd6:	02 c0       	rjmp	.+4      	; 0xcdc <vfprintf+0x368>
 cd8:	88 e5       	ldi	r24, 0x58	; 88
 cda:	90 e0       	ldi	r25, 0x00	; 0
 cdc:	b6 01       	movw	r22, r12
 cde:	0c c0       	rjmp	.+24     	; 0xcf8 <vfprintf+0x384>
 ce0:	8a 2d       	mov	r24, r10
 ce2:	86 78       	andi	r24, 0x86	; 134
 ce4:	51 f0       	breq	.+20     	; 0xcfa <vfprintf+0x386>
 ce6:	a1 fe       	sbrs	r10, 1
 ce8:	02 c0       	rjmp	.+4      	; 0xcee <vfprintf+0x37a>
 cea:	8b e2       	ldi	r24, 0x2B	; 43
 cec:	01 c0       	rjmp	.+2      	; 0xcf0 <vfprintf+0x37c>
 cee:	80 e2       	ldi	r24, 0x20	; 32
 cf0:	a7 fc       	sbrc	r10, 7
 cf2:	8d e2       	ldi	r24, 0x2D	; 45
 cf4:	b6 01       	movw	r22, r12
 cf6:	90 e0       	ldi	r25, 0x00	; 0
 cf8:	50 d0       	rcall	.+160    	; 0xd9a <fputc>
 cfa:	89 14       	cp	r8, r9
 cfc:	30 f4       	brcc	.+12     	; 0xd0a <vfprintf+0x396>
 cfe:	b6 01       	movw	r22, r12
 d00:	80 e3       	ldi	r24, 0x30	; 48
 d02:	90 e0       	ldi	r25, 0x00	; 0
 d04:	4a d0       	rcall	.+148    	; 0xd9a <fputc>
 d06:	9a 94       	dec	r9
 d08:	f8 cf       	rjmp	.-16     	; 0xcfa <vfprintf+0x386>
 d0a:	8a 94       	dec	r8
 d0c:	f3 01       	movw	r30, r6
 d0e:	e8 0d       	add	r30, r8
 d10:	f1 1d       	adc	r31, r1
 d12:	80 81       	ld	r24, Z
 d14:	b6 01       	movw	r22, r12
 d16:	90 e0       	ldi	r25, 0x00	; 0
 d18:	40 d0       	rcall	.+128    	; 0xd9a <fputc>
 d1a:	81 10       	cpse	r8, r1
 d1c:	f6 cf       	rjmp	.-20     	; 0xd0a <vfprintf+0x396>
 d1e:	22 20       	and	r2, r2
 d20:	09 f4       	brne	.+2      	; 0xd24 <vfprintf+0x3b0>
 d22:	4e ce       	rjmp	.-868    	; 0x9c0 <vfprintf+0x4c>
 d24:	b6 01       	movw	r22, r12
 d26:	80 e2       	ldi	r24, 0x20	; 32
 d28:	90 e0       	ldi	r25, 0x00	; 0
 d2a:	37 d0       	rcall	.+110    	; 0xd9a <fputc>
 d2c:	2a 94       	dec	r2
 d2e:	f7 cf       	rjmp	.-18     	; 0xd1e <vfprintf+0x3aa>
 d30:	f6 01       	movw	r30, r12
 d32:	86 81       	ldd	r24, Z+6	; 0x06
 d34:	97 81       	ldd	r25, Z+7	; 0x07
 d36:	02 c0       	rjmp	.+4      	; 0xd3c <vfprintf+0x3c8>
 d38:	8f ef       	ldi	r24, 0xFF	; 255
 d3a:	9f ef       	ldi	r25, 0xFF	; 255
 d3c:	2b 96       	adiw	r28, 0x0b	; 11
 d3e:	0f b6       	in	r0, 0x3f	; 63
 d40:	f8 94       	cli
 d42:	de bf       	out	0x3e, r29	; 62
 d44:	0f be       	out	0x3f, r0	; 63
 d46:	cd bf       	out	0x3d, r28	; 61
 d48:	df 91       	pop	r29
 d4a:	cf 91       	pop	r28
 d4c:	1f 91       	pop	r17
 d4e:	0f 91       	pop	r16
 d50:	ff 90       	pop	r15
 d52:	ef 90       	pop	r14
 d54:	df 90       	pop	r13
 d56:	cf 90       	pop	r12
 d58:	bf 90       	pop	r11
 d5a:	af 90       	pop	r10
 d5c:	9f 90       	pop	r9
 d5e:	8f 90       	pop	r8
 d60:	7f 90       	pop	r7
 d62:	6f 90       	pop	r6
 d64:	5f 90       	pop	r5
 d66:	4f 90       	pop	r4
 d68:	3f 90       	pop	r3
 d6a:	2f 90       	pop	r2
 d6c:	08 95       	ret

00000d6e <strnlen_P>:
 d6e:	fc 01       	movw	r30, r24
 d70:	05 90       	lpm	r0, Z+
 d72:	61 50       	subi	r22, 0x01	; 1
 d74:	70 40       	sbci	r23, 0x00	; 0
 d76:	01 10       	cpse	r0, r1
 d78:	d8 f7       	brcc	.-10     	; 0xd70 <strnlen_P+0x2>
 d7a:	80 95       	com	r24
 d7c:	90 95       	com	r25
 d7e:	8e 0f       	add	r24, r30
 d80:	9f 1f       	adc	r25, r31
 d82:	08 95       	ret

00000d84 <strnlen>:
 d84:	fc 01       	movw	r30, r24
 d86:	61 50       	subi	r22, 0x01	; 1
 d88:	70 40       	sbci	r23, 0x00	; 0
 d8a:	01 90       	ld	r0, Z+
 d8c:	01 10       	cpse	r0, r1
 d8e:	d8 f7       	brcc	.-10     	; 0xd86 <strnlen+0x2>
 d90:	80 95       	com	r24
 d92:	90 95       	com	r25
 d94:	8e 0f       	add	r24, r30
 d96:	9f 1f       	adc	r25, r31
 d98:	08 95       	ret

00000d9a <fputc>:
 d9a:	0f 93       	push	r16
 d9c:	1f 93       	push	r17
 d9e:	cf 93       	push	r28
 da0:	df 93       	push	r29
 da2:	fb 01       	movw	r30, r22
 da4:	23 81       	ldd	r18, Z+3	; 0x03
 da6:	21 fd       	sbrc	r18, 1
 da8:	03 c0       	rjmp	.+6      	; 0xdb0 <fputc+0x16>
 daa:	8f ef       	ldi	r24, 0xFF	; 255
 dac:	9f ef       	ldi	r25, 0xFF	; 255
 dae:	2c c0       	rjmp	.+88     	; 0xe08 <fputc+0x6e>
 db0:	22 ff       	sbrs	r18, 2
 db2:	16 c0       	rjmp	.+44     	; 0xde0 <fputc+0x46>
 db4:	46 81       	ldd	r20, Z+6	; 0x06
 db6:	57 81       	ldd	r21, Z+7	; 0x07
 db8:	24 81       	ldd	r18, Z+4	; 0x04
 dba:	35 81       	ldd	r19, Z+5	; 0x05
 dbc:	42 17       	cp	r20, r18
 dbe:	53 07       	cpc	r21, r19
 dc0:	44 f4       	brge	.+16     	; 0xdd2 <fputc+0x38>
 dc2:	a0 81       	ld	r26, Z
 dc4:	b1 81       	ldd	r27, Z+1	; 0x01
 dc6:	9d 01       	movw	r18, r26
 dc8:	2f 5f       	subi	r18, 0xFF	; 255
 dca:	3f 4f       	sbci	r19, 0xFF	; 255
 dcc:	31 83       	std	Z+1, r19	; 0x01
 dce:	20 83       	st	Z, r18
 dd0:	8c 93       	st	X, r24
 dd2:	26 81       	ldd	r18, Z+6	; 0x06
 dd4:	37 81       	ldd	r19, Z+7	; 0x07
 dd6:	2f 5f       	subi	r18, 0xFF	; 255
 dd8:	3f 4f       	sbci	r19, 0xFF	; 255
 dda:	37 83       	std	Z+7, r19	; 0x07
 ddc:	26 83       	std	Z+6, r18	; 0x06
 dde:	14 c0       	rjmp	.+40     	; 0xe08 <fputc+0x6e>
 de0:	8b 01       	movw	r16, r22
 de2:	ec 01       	movw	r28, r24
 de4:	fb 01       	movw	r30, r22
 de6:	00 84       	ldd	r0, Z+8	; 0x08
 de8:	f1 85       	ldd	r31, Z+9	; 0x09
 dea:	e0 2d       	mov	r30, r0
 dec:	09 95       	icall
 dee:	89 2b       	or	r24, r25
 df0:	e1 f6       	brne	.-72     	; 0xdaa <fputc+0x10>
 df2:	d8 01       	movw	r26, r16
 df4:	16 96       	adiw	r26, 0x06	; 6
 df6:	8d 91       	ld	r24, X+
 df8:	9c 91       	ld	r25, X
 dfa:	17 97       	sbiw	r26, 0x07	; 7
 dfc:	01 96       	adiw	r24, 0x01	; 1
 dfe:	17 96       	adiw	r26, 0x07	; 7
 e00:	9c 93       	st	X, r25
 e02:	8e 93       	st	-X, r24
 e04:	16 97       	sbiw	r26, 0x06	; 6
 e06:	ce 01       	movw	r24, r28
 e08:	df 91       	pop	r29
 e0a:	cf 91       	pop	r28
 e0c:	1f 91       	pop	r17
 e0e:	0f 91       	pop	r16
 e10:	08 95       	ret

00000e12 <__ultoa_invert>:
 e12:	fa 01       	movw	r30, r20
 e14:	aa 27       	eor	r26, r26
 e16:	28 30       	cpi	r18, 0x08	; 8
 e18:	51 f1       	breq	.+84     	; 0xe6e <__ultoa_invert+0x5c>
 e1a:	20 31       	cpi	r18, 0x10	; 16
 e1c:	81 f1       	breq	.+96     	; 0xe7e <__ultoa_invert+0x6c>
 e1e:	e8 94       	clt
 e20:	6f 93       	push	r22
 e22:	6e 7f       	andi	r22, 0xFE	; 254
 e24:	6e 5f       	subi	r22, 0xFE	; 254
 e26:	7f 4f       	sbci	r23, 0xFF	; 255
 e28:	8f 4f       	sbci	r24, 0xFF	; 255
 e2a:	9f 4f       	sbci	r25, 0xFF	; 255
 e2c:	af 4f       	sbci	r26, 0xFF	; 255
 e2e:	b1 e0       	ldi	r27, 0x01	; 1
 e30:	3e d0       	rcall	.+124    	; 0xeae <__ultoa_invert+0x9c>
 e32:	b4 e0       	ldi	r27, 0x04	; 4
 e34:	3c d0       	rcall	.+120    	; 0xeae <__ultoa_invert+0x9c>
 e36:	67 0f       	add	r22, r23
 e38:	78 1f       	adc	r23, r24
 e3a:	89 1f       	adc	r24, r25
 e3c:	9a 1f       	adc	r25, r26
 e3e:	a1 1d       	adc	r26, r1
 e40:	68 0f       	add	r22, r24
 e42:	79 1f       	adc	r23, r25
 e44:	8a 1f       	adc	r24, r26
 e46:	91 1d       	adc	r25, r1
 e48:	a1 1d       	adc	r26, r1
 e4a:	6a 0f       	add	r22, r26
 e4c:	71 1d       	adc	r23, r1
 e4e:	81 1d       	adc	r24, r1
 e50:	91 1d       	adc	r25, r1
 e52:	a1 1d       	adc	r26, r1
 e54:	20 d0       	rcall	.+64     	; 0xe96 <__ultoa_invert+0x84>
 e56:	09 f4       	brne	.+2      	; 0xe5a <__ultoa_invert+0x48>
 e58:	68 94       	set
 e5a:	3f 91       	pop	r19
 e5c:	2a e0       	ldi	r18, 0x0A	; 10
 e5e:	26 9f       	mul	r18, r22
 e60:	11 24       	eor	r1, r1
 e62:	30 19       	sub	r19, r0
 e64:	30 5d       	subi	r19, 0xD0	; 208
 e66:	31 93       	st	Z+, r19
 e68:	de f6       	brtc	.-74     	; 0xe20 <__ultoa_invert+0xe>
 e6a:	cf 01       	movw	r24, r30
 e6c:	08 95       	ret
 e6e:	46 2f       	mov	r20, r22
 e70:	47 70       	andi	r20, 0x07	; 7
 e72:	40 5d       	subi	r20, 0xD0	; 208
 e74:	41 93       	st	Z+, r20
 e76:	b3 e0       	ldi	r27, 0x03	; 3
 e78:	0f d0       	rcall	.+30     	; 0xe98 <__ultoa_invert+0x86>
 e7a:	c9 f7       	brne	.-14     	; 0xe6e <__ultoa_invert+0x5c>
 e7c:	f6 cf       	rjmp	.-20     	; 0xe6a <__ultoa_invert+0x58>
 e7e:	46 2f       	mov	r20, r22
 e80:	4f 70       	andi	r20, 0x0F	; 15
 e82:	40 5d       	subi	r20, 0xD0	; 208
 e84:	4a 33       	cpi	r20, 0x3A	; 58
 e86:	18 f0       	brcs	.+6      	; 0xe8e <__ultoa_invert+0x7c>
 e88:	49 5d       	subi	r20, 0xD9	; 217
 e8a:	31 fd       	sbrc	r19, 1
 e8c:	40 52       	subi	r20, 0x20	; 32
 e8e:	41 93       	st	Z+, r20
 e90:	02 d0       	rcall	.+4      	; 0xe96 <__ultoa_invert+0x84>
 e92:	a9 f7       	brne	.-22     	; 0xe7e <__ultoa_invert+0x6c>
 e94:	ea cf       	rjmp	.-44     	; 0xe6a <__ultoa_invert+0x58>
 e96:	b4 e0       	ldi	r27, 0x04	; 4
 e98:	a6 95       	lsr	r26
 e9a:	97 95       	ror	r25
 e9c:	87 95       	ror	r24
 e9e:	77 95       	ror	r23
 ea0:	67 95       	ror	r22
 ea2:	ba 95       	dec	r27
 ea4:	c9 f7       	brne	.-14     	; 0xe98 <__ultoa_invert+0x86>
 ea6:	00 97       	sbiw	r24, 0x00	; 0
 ea8:	61 05       	cpc	r22, r1
 eaa:	71 05       	cpc	r23, r1
 eac:	08 95       	ret
 eae:	9b 01       	movw	r18, r22
 eb0:	ac 01       	movw	r20, r24
 eb2:	0a 2e       	mov	r0, r26
 eb4:	06 94       	lsr	r0
 eb6:	57 95       	ror	r21
 eb8:	47 95       	ror	r20
 eba:	37 95       	ror	r19
 ebc:	27 95       	ror	r18
 ebe:	ba 95       	dec	r27
 ec0:	c9 f7       	brne	.-14     	; 0xeb4 <__ultoa_invert+0xa2>
 ec2:	62 0f       	add	r22, r18
 ec4:	73 1f       	adc	r23, r19
 ec6:	84 1f       	adc	r24, r20
 ec8:	95 1f       	adc	r25, r21
 eca:	a0 1d       	adc	r26, r0
 ecc:	08 95       	ret

00000ece <_exit>:
 ece:	f8 94       	cli

00000ed0 <__stop_program>:
 ed0:	ff cf       	rjmp	.-2      	; 0xed0 <__stop_program>
