
exp4_attack.elf:     file format elf32-avr

Sections:
Idx Name          Size      VMA       LMA       File off  Algn
  0 .data         000000fa  00800200  00000ff2  00001086  2**0
                  CONTENTS, ALLOC, LOAD, DATA
  1 .text         00000ff2  00000000  00000000  00000094  2**1
                  CONTENTS, ALLOC, LOAD, READONLY, CODE
  2 .bss          0000019a  008002fa  008002fa  00001180  2**0
                  ALLOC
  3 .comment      0000005c  00000000  00000000  00001180  2**0
                  CONTENTS, READONLY
  4 .note.gnu.avr.deviceinfo 00000040  00000000  00000000  000011dc  2**2
                  CONTENTS, READONLY
  5 .debug_aranges 00000200  00000000  00000000  0000121c  2**0
                  CONTENTS, READONLY, DEBUGGING
  6 .debug_info   0000234a  00000000  00000000  0000141c  2**0
                  CONTENTS, READONLY, DEBUGGING
  7 .debug_abbrev 00001996  00000000  00000000  00003766  2**0
                  CONTENTS, READONLY, DEBUGGING
  8 .debug_line   00001035  00000000  00000000  000050fc  2**0
                  CONTENTS, READONLY, DEBUGGING
  9 .debug_frame  0000049c  00000000  00000000  00006134  2**2
                  CONTENTS, READONLY, DEBUGGING
 10 .debug_str    00000c3a  00000000  00000000  000065d0  2**0
                  CONTENTS, READONLY, DEBUGGING
 11 .debug_loc    00000e87  00000000  00000000  0000720a  2**0
                  CONTENTS, READONLY, DEBUGGING
 12 .debug_ranges 000001b0  00000000  00000000  00008091  2**0
                  CONTENTS, READONLY, DEBUGGING

Disassembly of section .text:

00000000 <__vectors>:
   0:	8f c0       	rjmp	.+286    	; 0x120 <__ctors_end>
   2:	00 00       	nop
   4:	aa c0       	rjmp	.+340    	; 0x15a <__bad_interrupt>
   6:	00 00       	nop
   8:	a8 c0       	rjmp	.+336    	; 0x15a <__bad_interrupt>
   a:	00 00       	nop
   c:	a6 c0       	rjmp	.+332    	; 0x15a <__bad_interrupt>
   e:	00 00       	nop
  10:	a4 c0       	rjmp	.+328    	; 0x15a <__bad_interrupt>
  12:	00 00       	nop
  14:	a2 c0       	rjmp	.+324    	; 0x15a <__bad_interrupt>
  16:	00 00       	nop
  18:	a0 c0       	rjmp	.+320    	; 0x15a <__bad_interrupt>
  1a:	00 00       	nop
  1c:	9e c0       	rjmp	.+316    	; 0x15a <__bad_interrupt>
  1e:	00 00       	nop
  20:	9c c0       	rjmp	.+312    	; 0x15a <__bad_interrupt>
  22:	00 00       	nop
  24:	9a c0       	rjmp	.+308    	; 0x15a <__bad_interrupt>
  26:	00 00       	nop
  28:	98 c0       	rjmp	.+304    	; 0x15a <__bad_interrupt>
  2a:	00 00       	nop
  2c:	96 c0       	rjmp	.+300    	; 0x15a <__bad_interrupt>
  2e:	00 00       	nop
  30:	94 c0       	rjmp	.+296    	; 0x15a <__bad_interrupt>
  32:	00 00       	nop
  34:	92 c0       	rjmp	.+292    	; 0x15a <__bad_interrupt>
  36:	00 00       	nop
  38:	90 c0       	rjmp	.+288    	; 0x15a <__bad_interrupt>
  3a:	00 00       	nop
  3c:	8e c0       	rjmp	.+284    	; 0x15a <__bad_interrupt>
  3e:	00 00       	nop
  40:	8c c0       	rjmp	.+280    	; 0x15a <__bad_interrupt>
  42:	00 00       	nop
  44:	8a c0       	rjmp	.+276    	; 0x15a <__bad_interrupt>
  46:	00 00       	nop
  48:	88 c0       	rjmp	.+272    	; 0x15a <__bad_interrupt>
  4a:	00 00       	nop
  4c:	86 c0       	rjmp	.+268    	; 0x15a <__bad_interrupt>
  4e:	00 00       	nop
  50:	84 c0       	rjmp	.+264    	; 0x15a <__bad_interrupt>
  52:	00 00       	nop
  54:	82 c0       	rjmp	.+260    	; 0x15a <__bad_interrupt>
  56:	00 00       	nop
  58:	80 c0       	rjmp	.+256    	; 0x15a <__bad_interrupt>
  5a:	00 00       	nop
  5c:	7e c0       	rjmp	.+252    	; 0x15a <__bad_interrupt>
  5e:	00 00       	nop
  60:	7c c0       	rjmp	.+248    	; 0x15a <__bad_interrupt>
  62:	00 00       	nop
  64:	7a c0       	rjmp	.+244    	; 0x15a <__bad_interrupt>
  66:	00 00       	nop
  68:	78 c0       	rjmp	.+240    	; 0x15a <__bad_interrupt>
  6a:	00 00       	nop
  6c:	76 c0       	rjmp	.+236    	; 0x15a <__bad_interrupt>
  6e:	00 00       	nop
  70:	74 c0       	rjmp	.+232    	; 0x15a <__bad_interrupt>
  72:	00 00       	nop
  74:	72 c0       	rjmp	.+228    	; 0x15a <__bad_interrupt>
  76:	00 00       	nop
  78:	70 c0       	rjmp	.+224    	; 0x15a <__bad_interrupt>
  7a:	00 00       	nop
  7c:	6e c0       	rjmp	.+220    	; 0x15a <__bad_interrupt>
  7e:	00 00       	nop
  80:	6c c0       	rjmp	.+216    	; 0x15a <__bad_interrupt>
  82:	00 00       	nop
  84:	6a c0       	rjmp	.+212    	; 0x15a <__bad_interrupt>
  86:	00 00       	nop
  88:	68 c0       	rjmp	.+208    	; 0x15a <__bad_interrupt>
  8a:	00 00       	nop
  8c:	66 c0       	rjmp	.+204    	; 0x15a <__bad_interrupt>
  8e:	00 00       	nop
  90:	64 c0       	rjmp	.+200    	; 0x15a <__bad_interrupt>
  92:	00 00       	nop
  94:	62 c0       	rjmp	.+196    	; 0x15a <__bad_interrupt>
  96:	00 00       	nop
  98:	60 c0       	rjmp	.+192    	; 0x15a <__bad_interrupt>
  9a:	00 00       	nop
  9c:	5e c0       	rjmp	.+188    	; 0x15a <__bad_interrupt>
  9e:	00 00       	nop
  a0:	5c c0       	rjmp	.+184    	; 0x15a <__bad_interrupt>
  a2:	00 00       	nop
  a4:	5a c0       	rjmp	.+180    	; 0x15a <__bad_interrupt>
  a6:	00 00       	nop
  a8:	58 c0       	rjmp	.+176    	; 0x15a <__bad_interrupt>
  aa:	00 00       	nop
  ac:	56 c0       	rjmp	.+172    	; 0x15a <__bad_interrupt>
  ae:	00 00       	nop
  b0:	54 c0       	rjmp	.+168    	; 0x15a <__bad_interrupt>
  b2:	00 00       	nop
  b4:	52 c0       	rjmp	.+164    	; 0x15a <__bad_interrupt>
  b6:	00 00       	nop
  b8:	50 c0       	rjmp	.+160    	; 0x15a <__bad_interrupt>
  ba:	00 00       	nop
  bc:	4e c0       	rjmp	.+156    	; 0x15a <__bad_interrupt>
  be:	00 00       	nop
  c0:	4c c0       	rjmp	.+152    	; 0x15a <__bad_interrupt>
  c2:	00 00       	nop
  c4:	4a c0       	rjmp	.+148    	; 0x15a <__bad_interrupt>
  c6:	00 00       	nop
  c8:	48 c0       	rjmp	.+144    	; 0x15a <__bad_interrupt>
  ca:	00 00       	nop
  cc:	46 c0       	rjmp	.+140    	; 0x15a <__bad_interrupt>
  ce:	00 00       	nop
  d0:	44 c0       	rjmp	.+136    	; 0x15a <__bad_interrupt>
  d2:	00 00       	nop
  d4:	42 c0       	rjmp	.+132    	; 0x15a <__bad_interrupt>
  d6:	00 00       	nop
  d8:	40 c0       	rjmp	.+128    	; 0x15a <__bad_interrupt>
  da:	00 00       	nop
  dc:	3e c0       	rjmp	.+124    	; 0x15a <__bad_interrupt>
  de:	00 00       	nop
  e0:	3c c0       	rjmp	.+120    	; 0x15a <__bad_interrupt>
  e2:	00 00       	nop
  e4:	3a c0       	rjmp	.+116    	; 0x15a <__bad_interrupt>
  e6:	00 00       	nop
  e8:	38 c0       	rjmp	.+112    	; 0x15a <__bad_interrupt>
  ea:	00 00       	nop
  ec:	36 c0       	rjmp	.+108    	; 0x15a <__bad_interrupt>
  ee:	00 00       	nop
  f0:	34 c0       	rjmp	.+104    	; 0x15a <__bad_interrupt>
  f2:	00 00       	nop
  f4:	32 c0       	rjmp	.+100    	; 0x15a <__bad_interrupt>
  f6:	00 00       	nop
  f8:	30 c0       	rjmp	.+96     	; 0x15a <__bad_interrupt>
  fa:	00 00       	nop
  fc:	2e c0       	rjmp	.+92     	; 0x15a <__bad_interrupt>
  fe:	00 00       	nop
 100:	2c c0       	rjmp	.+88     	; 0x15a <__bad_interrupt>
 102:	00 00       	nop
 104:	2a c0       	rjmp	.+84     	; 0x15a <__bad_interrupt>
 106:	00 00       	nop
 108:	28 c0       	rjmp	.+80     	; 0x15a <__bad_interrupt>
 10a:	00 00       	nop
 10c:	26 c0       	rjmp	.+76     	; 0x15a <__bad_interrupt>
 10e:	00 00       	nop
 110:	24 c0       	rjmp	.+72     	; 0x15a <__bad_interrupt>
 112:	00 00       	nop
 114:	22 c0       	rjmp	.+68     	; 0x15a <__bad_interrupt>
 116:	00 00       	nop
 118:	20 c0       	rjmp	.+64     	; 0x15a <__bad_interrupt>
 11a:	00 00       	nop
 11c:	1e c0       	rjmp	.+60     	; 0x15a <__bad_interrupt>
	...

00000120 <__ctors_end>:
 120:	11 24       	eor	r1, r1
 122:	1f be       	out	0x3f, r1	; 63
 124:	cf ef       	ldi	r28, 0xFF	; 255
 126:	d1 e4       	ldi	r29, 0x41	; 65
 128:	de bf       	out	0x3e, r29	; 62
 12a:	cd bf       	out	0x3d, r28	; 61

0000012c <__do_copy_data>:
 12c:	12 e0       	ldi	r17, 0x02	; 2
 12e:	a0 e0       	ldi	r26, 0x00	; 0
 130:	b2 e0       	ldi	r27, 0x02	; 2
 132:	e2 ef       	ldi	r30, 0xF2	; 242
 134:	ff e0       	ldi	r31, 0x0F	; 15
 136:	00 e0       	ldi	r16, 0x00	; 0
 138:	0b bf       	out	0x3b, r16	; 59
 13a:	02 c0       	rjmp	.+4      	; 0x140 <__do_copy_data+0x14>
 13c:	07 90       	elpm	r0, Z+
 13e:	0d 92       	st	X+, r0
 140:	aa 3f       	cpi	r26, 0xFA	; 250
 142:	b1 07       	cpc	r27, r17
 144:	d9 f7       	brne	.-10     	; 0x13c <__do_copy_data+0x10>

00000146 <__do_clear_bss>:
 146:	24 e0       	ldi	r18, 0x04	; 4
 148:	aa ef       	ldi	r26, 0xFA	; 250
 14a:	b2 e0       	ldi	r27, 0x02	; 2
 14c:	01 c0       	rjmp	.+2      	; 0x150 <.do_clear_bss_start>

0000014e <.do_clear_bss_loop>:
 14e:	1d 92       	st	X+, r1

00000150 <.do_clear_bss_start>:
 150:	a4 39       	cpi	r26, 0x94	; 148
 152:	b2 07       	cpc	r27, r18
 154:	e1 f7       	brne	.-8      	; 0x14e <.do_clear_bss_loop>
 156:	67 d1       	rcall	.+718    	; 0x426 <main>
 158:	4a c7       	rjmp	.+3732   	; 0xfee <_exit>

0000015a <__bad_interrupt>:
 15a:	52 cf       	rjmp	.-348    	; 0x0 <__vectors>

0000015c <init>:
int length;
unsigned long count=0;

void init() 
{
	leds_init();
 15c:	32 d2       	rcall	.+1124   	; 0x5c2 <leds_init>
	leds_on(LED_RED);
 15e:	83 e0       	ldi	r24, 0x03	; 3
 160:	37 d2       	rcall	.+1134   	; 0x5d0 <leds_on>
	serial_init(9600);
 162:	60 e8       	ldi	r22, 0x80	; 128
 164:	75 e2       	ldi	r23, 0x25	; 37
 166:	80 e0       	ldi	r24, 0x00	; 0
 168:	90 e0       	ldi	r25, 0x00	; 0
 16a:	90 d3       	rcall	.+1824   	; 0x88c <serial_init>
	printf("Demo TX program running on node %04x\n\r", NODE);
 16c:	1f 92       	push	r1
 16e:	81 e0       	ldi	r24, 0x01	; 1
 170:	8f 93       	push	r24
 172:	8f e0       	ldi	r24, 0x0F	; 15
 174:	92 e0       	ldi	r25, 0x02	; 2
 176:	9f 93       	push	r25
 178:	8f 93       	push	r24
	leds_on(LED_ORANGE);
 17a:	49 d4       	rcall	.+2194   	; 0xa0e <printf>
 17c:	82 e0       	ldi	r24, 0x02	; 2
	button_init();
 17e:	28 d2       	rcall	.+1104   	; 0x5d0 <leds_on>
 180:	48 d1       	rcall	.+656    	; 0x412 <button_init>
	radio_init(NODE);
 182:	81 e0       	ldi	r24, 0x01	; 1
 184:	90 e0       	ldi	r25, 0x00	; 0
 186:	3c d2       	rcall	.+1144   	; 0x600 <radio_init>
 188:	70 d2       	rcall	.+1248   	; 0x66a <radio_start>
	radio_start();
 18a:	0f 90       	pop	r0
 18c:	0f 90       	pop	r0
}
 18e:	0f 90       	pop	r0
 190:	0f 90       	pop	r0
 192:	08 95       	ret

00000194 <loop>:
 194:	7f 92       	push	r7
 196:	8f 92       	push	r8

static unsigned char counter=0;
static unsigned long until=0;

void loop() {
 198:	9f 92       	push	r9
 19a:	af 92       	push	r10
 19c:	bf 92       	push	r11
 19e:	cf 92       	push	r12
 1a0:	df 92       	push	r13
 1a2:	ef 92       	push	r14
 1a4:	ff 92       	push	r15
 1a6:	0f 93       	push	r16
 1a8:	1f 93       	push	r17
 1aa:	cf 93       	push	r28
 1ac:	df 93       	push	r29
 1ae:	cd b7       	in	r28, 0x3d	; 61
 1b0:	de b7       	in	r29, 0x3e	; 62
 1b2:	27 97       	sbiw	r28, 0x07	; 7
 1b4:	0f b6       	in	r0, 0x3f	; 63
 1b6:	f8 94       	cli
 1b8:	de bf       	out	0x3e, r29	; 62
 1ba:	0f be       	out	0x3f, r0	; 63
 1bc:	cd bf       	out	0x3d, r28	; 61
	unsigned short dst=0;
 1be:	1a 82       	std	Y+2, r1	; 0x02
 1c0:	19 82       	std	Y+1, r1	; 0x01

	unsigned short src=0;
 1c2:	1c 82       	std	Y+4, r1	; 0x04
 1c4:	1b 82       	std	Y+3, r1	; 0x03
	unsigned char valid=0;
	unsigned char energy=0;
	unsigned char lqi=0;
 1c6:	1d 82       	std	Y+5, r1	; 0x05
	if (radio_rxed()) {
 1c8:	c5 d2       	rcall	.+1418   	; 0x754 <radio_rxed>
 1ca:	88 23       	and	r24, r24
 1cc:	09 f4       	brne	.+2      	; 0x1d0 <loop+0x3c>
 1ce:	63 c0       	rjmp	.+198    	; 0x296 <loop+0x102>

		unsigned char energy;
		unsigned char valid;
		
		int rxLen = radio_recv(&buffer[0],128,&dst,&src,&valid,&energy,&lqi);
 1d0:	9e 01       	movw	r18, r28
 1d2:	2b 5f       	subi	r18, 0xFB	; 251
 1d4:	3f 4f       	sbci	r19, 0xFF	; 255
 1d6:	69 01       	movw	r12, r18
 1d8:	ce 01       	movw	r24, r28
 1da:	07 96       	adiw	r24, 0x07	; 7
 1dc:	7c 01       	movw	r14, r24
 1de:	8e 01       	movw	r16, r28
 1e0:	0a 5f       	subi	r16, 0xFA	; 250
 1e2:	1f 4f       	sbci	r17, 0xFF	; 255
 1e4:	22 50       	subi	r18, 0x02	; 2
 1e6:	31 09       	sbc	r19, r1
 1e8:	ae 01       	movw	r20, r28
 1ea:	4f 5f       	subi	r20, 0xFF	; 255
 1ec:	5f 4f       	sbci	r21, 0xFF	; 255
 1ee:	60 e8       	ldi	r22, 0x80	; 128
 1f0:	8e ef       	ldi	r24, 0xFE	; 254
 1f2:	93 e0       	ldi	r25, 0x03	; 3
 1f4:	b5 d2       	rcall	.+1386   	; 0x760 <radio_recv>
 1f6:	78 2e       	mov	r7, r24
 1f8:	88 2e       	mov	r8, r24
 1fa:	91 2c       	mov	r9, r1
		printf("Message received from transmitter %04x to receiver %04x with data\n\r",NODE,DESTINATION);
 1fc:	1f 92       	push	r1
 1fe:	82 e0       	ldi	r24, 0x02	; 2
 200:	8f 93       	push	r24
 202:	1f 92       	push	r1
 204:	81 e0       	ldi	r24, 0x01	; 1
 206:	8f 93       	push	r24
 208:	86 e3       	ldi	r24, 0x36	; 54
 20a:	92 e0       	ldi	r25, 0x02	; 2
 20c:	9f 93       	push	r25
 20e:	8f 93       	push	r24
 210:	fe d3       	rcall	.+2044   	; 0xa0e <printf>
		for (int i=0;i<rxLen;i++)
 212:	0f 90       	pop	r0
 214:	0f 90       	pop	r0
 216:	0f 90       	pop	r0
 218:	0f 90       	pop	r0
 21a:	0f 90       	pop	r0
 21c:	0f 90       	pop	r0
 21e:	18 14       	cp	r1, r8
 220:	19 04       	cpc	r1, r9
 222:	0c f0       	brlt	.+2      	; 0x226 <loop+0x92>
 224:	b3 c0       	rjmp	.+358    	; 0x38c <loop+0x1f8>
 226:	0f 2e       	mov	r0, r31
 228:	fe ef       	ldi	r31, 0xFE	; 254
 22a:	af 2e       	mov	r10, r31
 22c:	f3 e0       	ldi	r31, 0x03	; 3
 22e:	bf 2e       	mov	r11, r31
 230:	f0 2d       	mov	r31, r0
 232:	c4 01       	movw	r24, r8
 234:	dc 01       	movw	r26, r24
 236:	a2 50       	subi	r26, 0x02	; 2
 238:	bc 4f       	sbci	r27, 0xFC	; 252
 23a:	6d 01       	movw	r12, r26
 23c:	85 01       	movw	r16, r10
		{
			printf("%02x ",buffer[i]);
 23e:	0f 2e       	mov	r0, r31
 240:	fa e7       	ldi	r31, 0x7A	; 122
 242:	ef 2e       	mov	r14, r31
 244:	f2 e0       	ldi	r31, 0x02	; 2
 246:	ff 2e       	mov	r15, r31
 248:	f0 2d       	mov	r31, r0
 24a:	f8 01       	movw	r30, r16
 24c:	81 91       	ld	r24, Z+
 24e:	8f 01       	movw	r16, r30
 250:	1f 92       	push	r1
 252:	8f 93       	push	r24
 254:	ff 92       	push	r15
 256:	ef 92       	push	r14
 258:	da d3       	rcall	.+1972   	; 0xa0e <printf>
		unsigned char energy;
		unsigned char valid;
		
		int rxLen = radio_recv(&buffer[0],128,&dst,&src,&valid,&energy,&lqi);
		printf("Message received from transmitter %04x to receiver %04x with data\n\r",NODE,DESTINATION);
		for (int i=0;i<rxLen;i++)
 25a:	0f 90       	pop	r0
 25c:	0f 90       	pop	r0
 25e:	0f 90       	pop	r0
 260:	0f 90       	pop	r0
 262:	0c 15       	cp	r16, r12
 264:	1d 05       	cpc	r17, r13
 266:	89 f7       	brne	.-30     	; 0x24a <loop+0xb6>
 268:	76 c0       	rjmp	.+236    	; 0x356 <loop+0x1c2>
		}
		length=rxLen;
	    if(count%2==0){
		  count++;
		  for(int i=0;i<rxLen;i++){
		   temp1[i]=buffer[i];
 26a:	d5 01       	movw	r26, r10
 26c:	8d 91       	ld	r24, X+
 26e:	5d 01       	movw	r10, r26
 270:	81 93       	st	Z+, r24
			printf("%02x ",buffer[i]);
		}
		length=rxLen;
	    if(count%2==0){
		  count++;
		  for(int i=0;i<rxLen;i++){
 272:	ac 15       	cp	r26, r12
 274:	bd 05       	cpc	r27, r13
 276:	c9 f7       	brne	.-14     	; 0x26a <loop+0xd6>
 278:	0e c0       	rjmp	.+28     	; 0x296 <loop+0x102>
		  }
		}
		else{
		 count++;
		 for(int i=0;i<rxLen;i++){
		  temp2[i]=buffer[i];
 27a:	81 91       	ld	r24, Z+
 27c:	8d 93       	st	X+, r24
		   temp1[i]=buffer[i];
		  }
		}
		else{
		 count++;
		 for(int i=0;i<rxLen;i++){
 27e:	e2 17       	cp	r30, r18
 280:	f3 07       	cpc	r31, r19
		  temp2[i]=buffer[i];
		}
		printf("Playing back old recorded code \n");
 282:	d9 f7       	brne	.-10     	; 0x27a <loop+0xe6>
 284:	80 e8       	ldi	r24, 0x80	; 128
 286:	92 e0       	ldi	r25, 0x02	; 2
 288:	d5 d3       	rcall	.+1962   	; 0xa34 <puts>
		radio_send(temp1,rxLen,0x0002);
 28a:	42 e0       	ldi	r20, 0x02	; 2
 28c:	50 e0       	ldi	r21, 0x00	; 0
 28e:	67 2d       	mov	r22, r7
 290:	8e e7       	ldi	r24, 0x7E	; 126
 292:	93 e0       	ldi	r25, 0x03	; 3
		}
	} 

	if (button_pressed()) {
 294:	fc d1       	rcall	.+1016   	; 0x68e <radio_send>
 296:	c0 d0       	rcall	.+384    	; 0x418 <button_pressed>
 298:	88 23       	and	r24, r24
 29a:	09 f4       	brne	.+2      	; 0x29e <loop+0x10a>
		while (button_pressed()); // wait till button released
 29c:	a6 c0       	rjmp	.+332    	; 0x3ea <loop+0x256>
 29e:	bc d0       	rcall	.+376    	; 0x418 <button_pressed>
 2a0:	81 11       	cpse	r24, r1
		leds_on(LED_GREEN);
 2a2:	fd cf       	rjmp	.-6      	; 0x29e <loop+0x10a>
 2a4:	81 e0       	ldi	r24, 0x01	; 1
 2a6:	94 d1       	rcall	.+808    	; 0x5d0 <leds_on>
		printf("Button pressed \n");
 2a8:	80 ea       	ldi	r24, 0xA0	; 160
 2aa:	92 e0       	ldi	r25, 0x02	; 2
 2ac:	c3 d3       	rcall	.+1926   	; 0xa34 <puts>
		
		//printf("TX at %lu: %02x %02x %02x %02x\n\r", time_millis(), buffer[0], buffer[1], buffer[2], buffer[3]);
		radio_send(buffer,length,0x0002);
 2ae:	42 e0       	ldi	r20, 0x02	; 2
 2b0:	50 e0       	ldi	r21, 0x00	; 0
 2b2:	60 91 8c 04 	lds	r22, 0x048C	; 0x80048c <length>
 2b6:	8e ef       	ldi	r24, 0xFE	; 254
 2b8:	93 e0       	ldi	r25, 0x03	; 3
 2ba:	e9 d1       	rcall	.+978    	; 0x68e <radio_send>
		printf("Sent recorded message from transmitter %04x to receiver %04x with data :",NODE,DESTINATION);
 2bc:	1f 92       	push	r1
 2be:	82 e0       	ldi	r24, 0x02	; 2
 2c0:	8f 93       	push	r24
 2c2:	1f 92       	push	r1
 2c4:	81 e0       	ldi	r24, 0x01	; 1
 2c6:	8f 93       	push	r24
 2c8:	80 eb       	ldi	r24, 0xB0	; 176
 2ca:	92 e0       	ldi	r25, 0x02	; 2
 2cc:	9f 93       	push	r25
 2ce:	8f 93       	push	r24
 2d0:	9e d3       	rcall	.+1852   	; 0xa0e <printf>
 2d2:	0f 90       	pop	r0
		for(int i=0;i<length;i++)
 2d4:	0f 90       	pop	r0
 2d6:	0f 90       	pop	r0
 2d8:	0f 90       	pop	r0
 2da:	0f 90       	pop	r0
 2dc:	0f 90       	pop	r0
 2de:	80 91 8c 04 	lds	r24, 0x048C	; 0x80048c <length>
 2e2:	90 91 8d 04 	lds	r25, 0x048D	; 0x80048d <length+0x1>
 2e6:	18 16       	cp	r1, r24
 2e8:	19 06       	cpc	r1, r25
 2ea:	1c f5       	brge	.+70     	; 0x332 <loop+0x19e>
 2ec:	0f 2e       	mov	r0, r31
 2ee:	fe ef       	ldi	r31, 0xFE	; 254
 2f0:	cf 2e       	mov	r12, r31
 2f2:	f2 e0       	ldi	r31, 0x02	; 2
 2f4:	df 2e       	mov	r13, r31
 2f6:	f0 2d       	mov	r31, r0
 2f8:	00 e0       	ldi	r16, 0x00	; 0
 2fa:	10 e0       	ldi	r17, 0x00	; 0
 2fc:	0f 2e       	mov	r0, r31
		printf("%02x ",temp2[i]);
 2fe:	fa e7       	ldi	r31, 0x7A	; 122
 300:	ef 2e       	mov	r14, r31
 302:	f2 e0       	ldi	r31, 0x02	; 2
 304:	ff 2e       	mov	r15, r31
 306:	f0 2d       	mov	r31, r0
 308:	f6 01       	movw	r30, r12
 30a:	81 91       	ld	r24, Z+
 30c:	6f 01       	movw	r12, r30
 30e:	1f 92       	push	r1
 310:	8f 93       	push	r24
 312:	ff 92       	push	r15
 314:	ef 92       	push	r14
 316:	7b d3       	rcall	.+1782   	; 0xa0e <printf>
 318:	0f 5f       	subi	r16, 0xFF	; 255
		printf("Button pressed \n");
		
		//printf("TX at %lu: %02x %02x %02x %02x\n\r", time_millis(), buffer[0], buffer[1], buffer[2], buffer[3]);
		radio_send(buffer,length,0x0002);
		printf("Sent recorded message from transmitter %04x to receiver %04x with data :",NODE,DESTINATION);
		for(int i=0;i<length;i++)
 31a:	1f 4f       	sbci	r17, 0xFF	; 255
 31c:	0f 90       	pop	r0
 31e:	0f 90       	pop	r0
 320:	0f 90       	pop	r0
 322:	0f 90       	pop	r0
 324:	80 91 8c 04 	lds	r24, 0x048C	; 0x80048c <length>
 328:	90 91 8d 04 	lds	r25, 0x048D	; 0x80048d <length+0x1>
 32c:	08 17       	cp	r16, r24
 32e:	19 07       	cpc	r17, r25
		printf("%02x ",temp2[i]);
		
		leds_off(LED_GREEN);
 330:	5c f3       	brlt	.-42     	; 0x308 <loop+0x174>
 332:	81 e0       	ldi	r24, 0x01	; 1
 334:	59 d1       	rcall	.+690    	; 0x5e8 <leds_off>
		// Now see if there is a response - within 1 second
		until=time_millis()+1000;
 336:	b6 d0       	rcall	.+364    	; 0x4a4 <time_millis>
 338:	58 c0       	rjmp	.+176    	; 0x3ea <loop+0x256>
	}
	   
 33a:	01 96       	adiw	r24, 0x01	; 1
		{
			printf("%02x ",buffer[i]);
		}
		length=rxLen;
	    if(count%2==0){
		  count++;
 33c:	a1 1d       	adc	r26, r1
 33e:	b1 1d       	adc	r27, r1
 340:	80 93 fa 02 	sts	0x02FA, r24	; 0x8002fa <__data_end>
 344:	90 93 fb 02 	sts	0x02FB, r25	; 0x8002fb <__data_end+0x1>
 348:	a0 93 fc 02 	sts	0x02FC, r26	; 0x8002fc <__data_end+0x2>
 34c:	b0 93 fd 02 	sts	0x02FD, r27	; 0x8002fd <__data_end+0x3>
 350:	ee e7       	ldi	r30, 0x7E	; 126
 352:	f3 e0       	ldi	r31, 0x03	; 3
 354:	8a cf       	rjmp	.-236    	; 0x26a <loop+0xd6>
 356:	90 92 8d 04 	sts	0x048D, r9	; 0x80048d <length+0x1>
		printf("Message received from transmitter %04x to receiver %04x with data\n\r",NODE,DESTINATION);
		for (int i=0;i<rxLen;i++)
		{
			printf("%02x ",buffer[i]);
		}
		length=rxLen;
 35a:	80 92 8c 04 	sts	0x048C, r8	; 0x80048c <length>
 35e:	80 91 fa 02 	lds	r24, 0x02FA	; 0x8002fa <__data_end>
	    if(count%2==0){
 362:	90 91 fb 02 	lds	r25, 0x02FB	; 0x8002fb <__data_end+0x1>
 366:	a0 91 fc 02 	lds	r26, 0x02FC	; 0x8002fc <__data_end+0x2>
 36a:	b0 91 fd 02 	lds	r27, 0x02FD	; 0x8002fd <__data_end+0x3>
 36e:	80 ff       	sbrs	r24, 0
 370:	e4 cf       	rjmp	.-56     	; 0x33a <loop+0x1a6>
 372:	1b c0       	rjmp	.+54     	; 0x3aa <loop+0x216>
 374:	01 96       	adiw	r24, 0x01	; 1
		  count++;
 376:	a1 1d       	adc	r26, r1
 378:	b1 1d       	adc	r27, r1
 37a:	80 93 fa 02 	sts	0x02FA, r24	; 0x8002fa <__data_end>
 37e:	90 93 fb 02 	sts	0x02FB, r25	; 0x8002fb <__data_end+0x1>
 382:	a0 93 fc 02 	sts	0x02FC, r26	; 0x8002fc <__data_end+0x2>
 386:	b0 93 fd 02 	sts	0x02FD, r27	; 0x8002fd <__data_end+0x3>
 38a:	85 cf       	rjmp	.-246    	; 0x296 <loop+0x102>
 38c:	90 92 8d 04 	sts	0x048D, r9	; 0x80048d <length+0x1>
		printf("Message received from transmitter %04x to receiver %04x with data\n\r",NODE,DESTINATION);
		for (int i=0;i<rxLen;i++)
		{
			printf("%02x ",buffer[i]);
		}
		length=rxLen;
 390:	80 92 8c 04 	sts	0x048C, r8	; 0x80048c <length>
 394:	80 91 fa 02 	lds	r24, 0x02FA	; 0x8002fa <__data_end>
	    if(count%2==0){
 398:	90 91 fb 02 	lds	r25, 0x02FB	; 0x8002fb <__data_end+0x1>
 39c:	a0 91 fc 02 	lds	r26, 0x02FC	; 0x8002fc <__data_end+0x2>
 3a0:	b0 91 fd 02 	lds	r27, 0x02FD	; 0x8002fd <__data_end+0x3>
 3a4:	80 ff       	sbrs	r24, 0
 3a6:	e6 cf       	rjmp	.-52     	; 0x374 <loop+0x1e0>
 3a8:	14 c0       	rjmp	.+40     	; 0x3d2 <loop+0x23e>
 3aa:	01 96       	adiw	r24, 0x01	; 1
		  for(int i=0;i<rxLen;i++){
		   temp1[i]=buffer[i];
		  }
		}
		else{
		 count++;
 3ac:	a1 1d       	adc	r26, r1
 3ae:	b1 1d       	adc	r27, r1
 3b0:	80 93 fa 02 	sts	0x02FA, r24	; 0x8002fa <__data_end>
 3b4:	90 93 fb 02 	sts	0x02FB, r25	; 0x8002fb <__data_end+0x1>
 3b8:	a0 93 fc 02 	sts	0x02FC, r26	; 0x8002fc <__data_end+0x2>
 3bc:	b0 93 fd 02 	sts	0x02FD, r27	; 0x8002fd <__data_end+0x3>
 3c0:	ee ef       	ldi	r30, 0xFE	; 254
 3c2:	f3 e0       	ldi	r31, 0x03	; 3
 3c4:	ae ef       	ldi	r26, 0xFE	; 254
 3c6:	b2 e0       	ldi	r27, 0x02	; 2
 3c8:	27 2d       	mov	r18, r7
 3ca:	30 e0       	ldi	r19, 0x00	; 0
 3cc:	22 50       	subi	r18, 0x02	; 2
 3ce:	3c 4f       	sbci	r19, 0xFC	; 252
 3d0:	54 cf       	rjmp	.-344    	; 0x27a <loop+0xe6>
 3d2:	01 96       	adiw	r24, 0x01	; 1
 3d4:	a1 1d       	adc	r26, r1
 3d6:	b1 1d       	adc	r27, r1
 3d8:	80 93 fa 02 	sts	0x02FA, r24	; 0x8002fa <__data_end>
 3dc:	90 93 fb 02 	sts	0x02FB, r25	; 0x8002fb <__data_end+0x1>
 3e0:	a0 93 fc 02 	sts	0x02FC, r26	; 0x8002fc <__data_end+0x2>
 3e4:	b0 93 fd 02 	sts	0x02FD, r27	; 0x8002fd <__data_end+0x3>
 3e8:	4d cf       	rjmp	.-358    	; 0x284 <loop+0xf0>
 3ea:	27 96       	adiw	r28, 0x07	; 7
		leds_off(LED_GREEN);
		// Now see if there is a response - within 1 second
		until=time_millis()+1000;
	}
	   
 3ec:	0f b6       	in	r0, 0x3f	; 63
 3ee:	f8 94       	cli
 3f0:	de bf       	out	0x3e, r29	; 62
 3f2:	0f be       	out	0x3f, r0	; 63
 3f4:	cd bf       	out	0x3d, r28	; 61
 3f6:	df 91       	pop	r29
 3f8:	cf 91       	pop	r28
 3fa:	1f 91       	pop	r17
 3fc:	0f 91       	pop	r16
 3fe:	ff 90       	pop	r15
 400:	ef 90       	pop	r14
 402:	df 90       	pop	r13
 404:	cf 90       	pop	r12
 406:	bf 90       	pop	r11
 408:	af 90       	pop	r10
 40a:	9f 90       	pop	r9
 40c:	8f 90       	pop	r8
 40e:	7f 90       	pop	r7
 410:	08 95       	ret

00000412 <button_init>:
 412:	6d 98       	cbi	0x0d, 5	; 13
 414:	75 9a       	sbi	0x0e, 5	; 14
 416:	08 95       	ret

00000418 <button_pressed>:
 418:	8c b1       	in	r24, 0x0c	; 12
 41a:	85 fb       	bst	r24, 5
 41c:	88 27       	eor	r24, r24
 41e:	80 f9       	bld	r24, 0
 420:	91 e0       	ldi	r25, 0x01	; 1
 422:	89 27       	eor	r24, r25
 424:	08 95       	ret

00000426 <main>:
 426:	47 d0       	rcall	.+142    	; 0x4b6 <timer_init>
 428:	80 e0       	ldi	r24, 0x00	; 0
 42a:	90 e0       	ldi	r25, 0x00	; 0
 42c:	52 d0       	rcall	.+164    	; 0x4d2 <timer_start>
 42e:	96 de       	rcall	.-724    	; 0x15c <init>
 430:	0f 2e       	mov	r0, r31
 432:	f0 e8       	ldi	r31, 0x80	; 128
 434:	cf 2e       	mov	r12, r31
 436:	fe e3       	ldi	r31, 0x3E	; 62
 438:	df 2e       	mov	r13, r31
 43a:	e1 2c       	mov	r14, r1
 43c:	f1 2c       	mov	r15, r1
 43e:	f0 2d       	mov	r31, r0
 440:	a9 de       	rcall	.-686    	; 0x194 <loop>
 442:	52 d0       	rcall	.+164    	; 0x4e8 <timer_overflow>
 444:	88 23       	and	r24, r24
 446:	89 f0       	breq	.+34     	; 0x46a <main+0x44>
 448:	80 91 7e 04 	lds	r24, 0x047E	; 0x80047e <cycles>
 44c:	90 91 7f 04 	lds	r25, 0x047F	; 0x80047f <cycles+0x1>
 450:	a0 91 80 04 	lds	r26, 0x0480	; 0x800480 <cycles+0x2>
 454:	b0 91 81 04 	lds	r27, 0x0481	; 0x800481 <cycles+0x3>
 458:	11 96       	adiw	r26, 0x01	; 1
 45a:	80 93 7e 04 	sts	0x047E, r24	; 0x80047e <cycles>
 45e:	90 93 7f 04 	sts	0x047F, r25	; 0x80047f <cycles+0x1>
 462:	a0 93 80 04 	sts	0x0480, r26	; 0x800480 <cycles+0x2>
 466:	b0 93 81 04 	sts	0x0481, r27	; 0x800481 <cycles+0x3>
 46a:	49 d0       	rcall	.+146    	; 0x4fe <timer_now>
 46c:	40 91 7e 04 	lds	r20, 0x047E	; 0x80047e <cycles>
 470:	50 91 7f 04 	lds	r21, 0x047F	; 0x80047f <cycles+0x1>
 474:	60 91 80 04 	lds	r22, 0x0480	; 0x800480 <cycles+0x2>
 478:	70 91 81 04 	lds	r23, 0x0481	; 0x800481 <cycles+0x3>
 47c:	8a 01       	movw	r16, r20
 47e:	9b 01       	movw	r18, r22
 480:	08 0f       	add	r16, r24
 482:	19 1f       	adc	r17, r25
 484:	21 1d       	adc	r18, r1
 486:	31 1d       	adc	r19, r1
 488:	c9 01       	movw	r24, r18
 48a:	b8 01       	movw	r22, r16
 48c:	a7 01       	movw	r20, r14
 48e:	96 01       	movw	r18, r12
 490:	7d d2       	rcall	.+1274   	; 0x98c <__udivmodsi4>
 492:	20 93 82 04 	sts	0x0482, r18	; 0x800482 <time_millis_count>
 496:	30 93 83 04 	sts	0x0483, r19	; 0x800483 <time_millis_count+0x1>
 49a:	40 93 84 04 	sts	0x0484, r20	; 0x800484 <time_millis_count+0x2>
 49e:	50 93 85 04 	sts	0x0485, r21	; 0x800485 <time_millis_count+0x3>
 4a2:	ce cf       	rjmp	.-100    	; 0x440 <main+0x1a>

000004a4 <time_millis>:
 4a4:	60 91 82 04 	lds	r22, 0x0482	; 0x800482 <time_millis_count>
 4a8:	70 91 83 04 	lds	r23, 0x0483	; 0x800483 <time_millis_count+0x1>
 4ac:	80 91 84 04 	lds	r24, 0x0484	; 0x800484 <time_millis_count+0x2>
 4b0:	90 91 85 04 	lds	r25, 0x0485	; 0x800485 <time_millis_count+0x3>
 4b4:	08 95       	ret

000004b6 <timer_init>:
 4b6:	10 92 80 00 	sts	0x0080, r1	; 0x800080 <__TEXT_REGION_LENGTH__+0x7e0080>
 4ba:	81 e0       	ldi	r24, 0x01	; 1
 4bc:	80 93 81 00 	sts	0x0081, r24	; 0x800081 <__TEXT_REGION_LENGTH__+0x7e0081>
 4c0:	10 92 82 00 	sts	0x0082, r1	; 0x800082 <__TEXT_REGION_LENGTH__+0x7e0082>
 4c4:	10 92 85 00 	sts	0x0085, r1	; 0x800085 <__TEXT_REGION_LENGTH__+0x7e0085>
 4c8:	10 92 84 00 	sts	0x0084, r1	; 0x800084 <__TEXT_REGION_LENGTH__+0x7e0084>
 4cc:	10 92 6f 00 	sts	0x006F, r1	; 0x80006f <__TEXT_REGION_LENGTH__+0x7e006f>
 4d0:	08 95       	ret

000004d2 <timer_start>:
 4d2:	cf 93       	push	r28
 4d4:	df 93       	push	r29
 4d6:	ec 01       	movw	r28, r24
 4d8:	ee df       	rcall	.-36     	; 0x4b6 <timer_init>
 4da:	d0 93 85 00 	sts	0x0085, r29	; 0x800085 <__TEXT_REGION_LENGTH__+0x7e0085>
 4de:	c0 93 84 00 	sts	0x0084, r28	; 0x800084 <__TEXT_REGION_LENGTH__+0x7e0084>
 4e2:	df 91       	pop	r29
 4e4:	cf 91       	pop	r28
 4e6:	08 95       	ret

000004e8 <timer_overflow>:
 4e8:	96 b3       	in	r25, 0x16	; 22
 4ea:	81 e0       	ldi	r24, 0x01	; 1
 4ec:	29 2f       	mov	r18, r25
 4ee:	21 70       	andi	r18, 0x01	; 1
 4f0:	90 ff       	sbrs	r25, 0
 4f2:	80 e0       	ldi	r24, 0x00	; 0
 4f4:	22 23       	and	r18, r18
 4f6:	11 f0       	breq	.+4      	; 0x4fc <timer_overflow+0x14>
 4f8:	91 e0       	ldi	r25, 0x01	; 1
 4fa:	96 bb       	out	0x16, r25	; 22
 4fc:	08 95       	ret

000004fe <timer_now>:
 4fe:	80 91 84 00 	lds	r24, 0x0084	; 0x800084 <__TEXT_REGION_LENGTH__+0x7e0084>
 502:	90 91 85 00 	lds	r25, 0x0085	; 0x800085 <__TEXT_REGION_LENGTH__+0x7e0085>
 506:	08 95       	ret

00000508 <timer_wait_micro>:
 508:	8f 92       	push	r8
 50a:	9f 92       	push	r9
 50c:	af 92       	push	r10
 50e:	bf 92       	push	r11
 510:	cf 92       	push	r12
 512:	df 92       	push	r13
 514:	ef 92       	push	r14
 516:	ff 92       	push	r15
 518:	cf 93       	push	r28
 51a:	df 93       	push	r29
 51c:	4c 01       	movw	r8, r24
 51e:	a1 2c       	mov	r10, r1
 520:	b1 2c       	mov	r11, r1
 522:	88 0c       	add	r8, r8
 524:	99 1c       	adc	r9, r9
 526:	aa 1c       	adc	r10, r10
 528:	bb 1c       	adc	r11, r11
 52a:	88 0c       	add	r8, r8
 52c:	99 1c       	adc	r9, r9
 52e:	aa 1c       	adc	r10, r10
 530:	bb 1c       	adc	r11, r11
 532:	88 0c       	add	r8, r8
 534:	99 1c       	adc	r9, r9
 536:	aa 1c       	adc	r10, r10
 538:	bb 1c       	adc	r11, r11
 53a:	88 0c       	add	r8, r8
 53c:	99 1c       	adc	r9, r9
 53e:	aa 1c       	adc	r10, r10
 540:	bb 1c       	adc	r11, r11
 542:	81 14       	cp	r8, r1
 544:	91 04       	cpc	r9, r1
 546:	81 e0       	ldi	r24, 0x01	; 1
 548:	a8 06       	cpc	r10, r24
 54a:	b1 04       	cpc	r11, r1
 54c:	00 f1       	brcs	.+64     	; 0x58e <timer_wait_micro+0x86>
 54e:	75 01       	movw	r14, r10
 550:	64 01       	movw	r12, r8
 552:	c4 e8       	ldi	r28, 0x84	; 132
 554:	d0 e0       	ldi	r29, 0x00	; 0
 556:	af df       	rcall	.-162    	; 0x4b6 <timer_init>
 558:	19 82       	std	Y+1, r1	; 0x01
 55a:	18 82       	st	Y, r1
 55c:	81 e0       	ldi	r24, 0x01	; 1
 55e:	e8 1a       	sub	r14, r24
 560:	f1 08       	sbc	r15, r1
 562:	c2 df       	rcall	.-124    	; 0x4e8 <timer_overflow>
 564:	88 23       	and	r24, r24
 566:	e9 f3       	breq	.-6      	; 0x562 <timer_wait_micro+0x5a>
 568:	c1 14       	cp	r12, r1
 56a:	d1 04       	cpc	r13, r1
 56c:	81 e0       	ldi	r24, 0x01	; 1
 56e:	e8 06       	cpc	r14, r24
 570:	f1 04       	cpc	r15, r1
 572:	88 f7       	brcc	.-30     	; 0x556 <timer_wait_micro+0x4e>
 574:	81 e0       	ldi	r24, 0x01	; 1
 576:	a8 1a       	sub	r10, r24
 578:	b1 08       	sbc	r11, r1
 57a:	95 01       	movw	r18, r10
 57c:	44 27       	eor	r20, r20
 57e:	55 27       	eor	r21, r21
 580:	a0 e0       	ldi	r26, 0x00	; 0
 582:	b0 e0       	ldi	r27, 0x00	; 0
 584:	27 d2       	rcall	.+1102   	; 0x9d4 <__mulohisi3>
 586:	86 0e       	add	r8, r22
 588:	97 1e       	adc	r9, r23
 58a:	a8 1e       	adc	r10, r24
 58c:	b9 1e       	adc	r11, r25
 58e:	80 94       	com	r8
 590:	90 94       	com	r9
 592:	91 df       	rcall	.-222    	; 0x4b6 <timer_init>
 594:	90 92 85 00 	sts	0x0085, r9	; 0x800085 <__TEXT_REGION_LENGTH__+0x7e0085>
 598:	80 92 84 00 	sts	0x0084, r8	; 0x800084 <__TEXT_REGION_LENGTH__+0x7e0084>
 59c:	a5 df       	rcall	.-182    	; 0x4e8 <timer_overflow>
 59e:	88 23       	and	r24, r24
 5a0:	e9 f3       	breq	.-6      	; 0x59c <timer_wait_micro+0x94>
 5a2:	df 91       	pop	r29
 5a4:	cf 91       	pop	r28
 5a6:	ff 90       	pop	r15
 5a8:	ef 90       	pop	r14
 5aa:	df 90       	pop	r13
 5ac:	cf 90       	pop	r12
 5ae:	bf 90       	pop	r11
 5b0:	af 90       	pop	r10
 5b2:	9f 90       	pop	r9
 5b4:	8f 90       	pop	r8
 5b6:	08 95       	ret

000005b8 <timer_cpuf>:
 5b8:	60 e0       	ldi	r22, 0x00	; 0
 5ba:	74 e2       	ldi	r23, 0x24	; 36
 5bc:	84 ef       	ldi	r24, 0xF4	; 244
 5be:	90 e0       	ldi	r25, 0x00	; 0
 5c0:	08 95       	ret

000005c2 <leds_init>:
 5c2:	6a 9a       	sbi	0x0d, 2	; 13
 5c4:	6b 9a       	sbi	0x0d, 3	; 13
 5c6:	6c 9a       	sbi	0x0d, 4	; 13
 5c8:	72 9a       	sbi	0x0e, 2	; 14
 5ca:	73 9a       	sbi	0x0e, 3	; 14
 5cc:	74 9a       	sbi	0x0e, 4	; 14
 5ce:	08 95       	ret

000005d0 <leds_on>:
 5d0:	81 30       	cpi	r24, 0x01	; 1
 5d2:	11 f4       	brne	.+4      	; 0x5d8 <leds_on+0x8>
 5d4:	72 98       	cbi	0x0e, 2	; 14
 5d6:	08 95       	ret
 5d8:	82 30       	cpi	r24, 0x02	; 2
 5da:	11 f4       	brne	.+4      	; 0x5e0 <leds_on+0x10>
 5dc:	73 98       	cbi	0x0e, 3	; 14
 5de:	08 95       	ret
 5e0:	83 30       	cpi	r24, 0x03	; 3
 5e2:	09 f4       	brne	.+2      	; 0x5e6 <leds_on+0x16>
 5e4:	74 98       	cbi	0x0e, 4	; 14
 5e6:	08 95       	ret

000005e8 <leds_off>:
 5e8:	81 30       	cpi	r24, 0x01	; 1
 5ea:	11 f4       	brne	.+4      	; 0x5f0 <leds_off+0x8>
 5ec:	72 9a       	sbi	0x0e, 2	; 14
 5ee:	08 95       	ret
 5f0:	82 30       	cpi	r24, 0x02	; 2
 5f2:	11 f4       	brne	.+4      	; 0x5f8 <leds_off+0x10>
 5f4:	73 9a       	sbi	0x0e, 3	; 14
 5f6:	08 95       	ret
 5f8:	83 30       	cpi	r24, 0x03	; 3
 5fa:	09 f4       	brne	.+2      	; 0x5fe <leds_off+0x16>
 5fc:	74 9a       	sbi	0x0e, 4	; 14
 5fe:	08 95       	ret

00000600 <radio_init>:
 600:	0f 93       	push	r16
 602:	1f 93       	push	r17
 604:	cf 93       	push	r28
 606:	df 93       	push	r29
 608:	d8 2f       	mov	r29, r24
 60a:	c9 2f       	mov	r28, r25
 60c:	09 e3       	ldi	r16, 0x39	; 57
 60e:	11 e0       	ldi	r17, 0x01	; 1
 610:	f8 01       	movw	r30, r16
 612:	10 82       	st	Z, r1
 614:	86 e0       	ldi	r24, 0x06	; 6
 616:	90 e0       	ldi	r25, 0x00	; 0
 618:	77 df       	rcall	.-274    	; 0x508 <timer_wait_micro>
 61a:	81 e0       	ldi	r24, 0x01	; 1
 61c:	f8 01       	movw	r30, r16
 61e:	80 83       	st	Z, r24
 620:	80 91 41 01 	lds	r24, 0x0141	; 0x800141 <__TEXT_REGION_LENGTH__+0x7e0141>
 624:	81 11       	cpse	r24, r1
 626:	08 c0       	rjmp	.+16     	; 0x638 <radio_init+0x38>
 628:	88 e0       	ldi	r24, 0x08	; 8
 62a:	80 93 42 01 	sts	0x0142, r24	; 0x800142 <__TEXT_REGION_LENGTH__+0x7e0142>
 62e:	8e ef       	ldi	r24, 0xFE	; 254
 630:	91 e0       	ldi	r25, 0x01	; 1
 632:	6a df       	rcall	.-300    	; 0x508 <timer_wait_micro>
 634:	80 91 41 01 	lds	r24, 0x0141	; 0x800141 <__TEXT_REGION_LENGTH__+0x7e0141>
 638:	8b e0       	ldi	r24, 0x0B	; 11
 63a:	80 93 48 01 	sts	0x0148, r24	; 0x800148 <__TEXT_REGION_LENGTH__+0x7e0148>
 63e:	8f ef       	ldi	r24, 0xFF	; 255
 640:	80 93 4f 01 	sts	0x014F, r24	; 0x80014f <__TEXT_REGION_LENGTH__+0x7e014f>
 644:	d0 93 89 04 	sts	0x0489, r29	; 0x800489 <radio_macaddr>
 648:	c0 93 8a 04 	sts	0x048A, r28	; 0x80048a <radio_macaddr+0x1>
 64c:	d0 93 60 01 	sts	0x0160, r29	; 0x800160 <__TEXT_REGION_LENGTH__+0x7e0160>
 650:	c0 93 61 01 	sts	0x0161, r28	; 0x800161 <__TEXT_REGION_LENGTH__+0x7e0161>
 654:	10 92 62 01 	sts	0x0162, r1	; 0x800162 <__TEXT_REGION_LENGTH__+0x7e0162>
 658:	10 92 63 01 	sts	0x0163, r1	; 0x800163 <__TEXT_REGION_LENGTH__+0x7e0163>
 65c:	80 91 41 01 	lds	r24, 0x0141	; 0x800141 <__TEXT_REGION_LENGTH__+0x7e0141>
 660:	df 91       	pop	r29
 662:	cf 91       	pop	r28
 664:	1f 91       	pop	r17
 666:	0f 91       	pop	r16
 668:	08 95       	ret

0000066a <radio_start>:
 66a:	8f ef       	ldi	r24, 0xFF	; 255
 66c:	80 93 4f 01 	sts	0x014F, r24	; 0x80014f <__TEXT_REGION_LENGTH__+0x7e014f>
 670:	86 e0       	ldi	r24, 0x06	; 6
 672:	80 93 42 01 	sts	0x0142, r24	; 0x800142 <__TEXT_REGION_LENGTH__+0x7e0142>
 676:	e1 e4       	ldi	r30, 0x41	; 65
 678:	f1 e0       	ldi	r31, 0x01	; 1
 67a:	80 81       	ld	r24, Z
 67c:	8f 71       	andi	r24, 0x1F	; 31
 67e:	86 30       	cpi	r24, 0x06	; 6
 680:	e1 f7       	brne	.-8      	; 0x67a <radio_start+0x10>
 682:	ec e4       	ldi	r30, 0x4C	; 76
 684:	f1 e0       	ldi	r31, 0x01	; 1
 686:	80 81       	ld	r24, Z
 688:	80 68       	ori	r24, 0x80	; 128
 68a:	80 83       	st	Z, r24
 68c:	08 95       	ret

0000068e <radio_send>:
 68e:	2f ef       	ldi	r18, 0xFF	; 255
 690:	20 93 4f 01 	sts	0x014F, r18	; 0x80014f <__TEXT_REGION_LENGTH__+0x7e014f>
 694:	20 91 41 01 	lds	r18, 0x0141	; 0x800141 <__TEXT_REGION_LENGTH__+0x7e0141>
 698:	2f 71       	andi	r18, 0x1F	; 31
 69a:	29 30       	cpi	r18, 0x09	; 9
 69c:	41 f0       	breq	.+16     	; 0x6ae <radio_send+0x20>
 69e:	29 e0       	ldi	r18, 0x09	; 9
 6a0:	20 93 42 01 	sts	0x0142, r18	; 0x800142 <__TEXT_REGION_LENGTH__+0x7e0142>
 6a4:	e1 e4       	ldi	r30, 0x41	; 65
 6a6:	f1 e0       	ldi	r31, 0x01	; 1
 6a8:	20 81       	ld	r18, Z
 6aa:	29 30       	cpi	r18, 0x09	; 9
 6ac:	e9 f7       	brne	.-6      	; 0x6a8 <radio_send+0x1a>
 6ae:	2d e0       	ldi	r18, 0x0D	; 13
 6b0:	26 0f       	add	r18, r22
 6b2:	20 93 80 01 	sts	0x0180, r18	; 0x800180 <__TEXT_REGION_LENGTH__+0x7e0180>
 6b6:	20 e2       	ldi	r18, 0x20	; 32
 6b8:	20 93 81 01 	sts	0x0181, r18	; 0x800181 <__TEXT_REGION_LENGTH__+0x7e0181>
 6bc:	22 e2       	ldi	r18, 0x22	; 34
 6be:	20 93 82 01 	sts	0x0182, r18	; 0x800182 <__TEXT_REGION_LENGTH__+0x7e0182>
 6c2:	21 e0       	ldi	r18, 0x01	; 1
 6c4:	20 93 83 01 	sts	0x0183, r18	; 0x800183 <__TEXT_REGION_LENGTH__+0x7e0183>
 6c8:	10 92 84 01 	sts	0x0184, r1	; 0x800184 <__TEXT_REGION_LENGTH__+0x7e0184>
 6cc:	10 92 85 01 	sts	0x0185, r1	; 0x800185 <__TEXT_REGION_LENGTH__+0x7e0185>
 6d0:	50 93 86 01 	sts	0x0186, r21	; 0x800186 <__TEXT_REGION_LENGTH__+0x7e0186>
 6d4:	40 93 87 01 	sts	0x0187, r20	; 0x800187 <__TEXT_REGION_LENGTH__+0x7e0187>
 6d8:	10 92 88 01 	sts	0x0188, r1	; 0x800188 <__TEXT_REGION_LENGTH__+0x7e0188>
 6dc:	10 92 89 01 	sts	0x0189, r1	; 0x800189 <__TEXT_REGION_LENGTH__+0x7e0189>
 6e0:	20 91 8a 04 	lds	r18, 0x048A	; 0x80048a <radio_macaddr+0x1>
 6e4:	20 93 8a 01 	sts	0x018A, r18	; 0x80018a <__TEXT_REGION_LENGTH__+0x7e018a>
 6e8:	20 91 89 04 	lds	r18, 0x0489	; 0x800489 <radio_macaddr>
 6ec:	20 93 8b 01 	sts	0x018B, r18	; 0x80018b <__TEXT_REGION_LENGTH__+0x7e018b>
 6f0:	66 23       	and	r22, r22
 6f2:	91 f0       	breq	.+36     	; 0x718 <radio_send+0x8a>
 6f4:	a8 2f       	mov	r26, r24
 6f6:	b9 2f       	mov	r27, r25
 6f8:	61 50       	subi	r22, 0x01	; 1
 6fa:	70 e0       	ldi	r23, 0x00	; 0
 6fc:	9b 01       	movw	r18, r22
 6fe:	23 57       	subi	r18, 0x73	; 115
 700:	3e 4f       	sbci	r19, 0xFE	; 254
 702:	ec e8       	ldi	r30, 0x8C	; 140
 704:	f1 e0       	ldi	r31, 0x01	; 1
 706:	8d 91       	ld	r24, X+
 708:	81 93       	st	Z+, r24
 70a:	e2 17       	cp	r30, r18
 70c:	f3 07       	cpc	r31, r19
 70e:	d9 f7       	brne	.-10     	; 0x706 <radio_send+0x78>
 710:	fb 01       	movw	r30, r22
 712:	e3 57       	subi	r30, 0x73	; 115
 714:	fe 4f       	sbci	r31, 0xFE	; 254
 716:	02 c0       	rjmp	.+4      	; 0x71c <radio_send+0x8e>
 718:	ec e8       	ldi	r30, 0x8C	; 140
 71a:	f1 e0       	ldi	r31, 0x01	; 1
 71c:	10 82       	st	Z, r1
 71e:	11 82       	std	Z+1, r1	; 0x01
 720:	82 e0       	ldi	r24, 0x02	; 2
 722:	80 93 42 01 	sts	0x0142, r24	; 0x800142 <__TEXT_REGION_LENGTH__+0x7e0142>
 726:	ef e4       	ldi	r30, 0x4F	; 79
 728:	f1 e0       	ldi	r31, 0x01	; 1
 72a:	80 81       	ld	r24, Z
 72c:	86 ff       	sbrs	r24, 6
 72e:	fd cf       	rjmp	.-6      	; 0x72a <radio_send+0x9c>
 730:	8f ef       	ldi	r24, 0xFF	; 255
 732:	80 93 4f 01 	sts	0x014F, r24	; 0x80014f <__TEXT_REGION_LENGTH__+0x7e014f>
 736:	86 e0       	ldi	r24, 0x06	; 6
 738:	80 93 42 01 	sts	0x0142, r24	; 0x800142 <__TEXT_REGION_LENGTH__+0x7e0142>
 73c:	e1 e4       	ldi	r30, 0x41	; 65
 73e:	f1 e0       	ldi	r31, 0x01	; 1
 740:	80 81       	ld	r24, Z
 742:	8f 71       	andi	r24, 0x1F	; 31
 744:	86 30       	cpi	r24, 0x06	; 6
 746:	e1 f7       	brne	.-8      	; 0x740 <radio_send+0xb2>
 748:	81 e0       	ldi	r24, 0x01	; 1
 74a:	80 93 86 04 	sts	0x0486, r24	; 0x800486 <radio_txdone_flag>
 74e:	80 91 41 01 	lds	r24, 0x0141	; 0x800141 <__TEXT_REGION_LENGTH__+0x7e0141>
 752:	08 95       	ret

00000754 <radio_rxed>:
 754:	80 91 4f 01 	lds	r24, 0x014F	; 0x80014f <__TEXT_REGION_LENGTH__+0x7e014f>
 758:	83 fb       	bst	r24, 3
 75a:	88 27       	eor	r24, r24
 75c:	80 f9       	bld	r24, 0
 75e:	08 95       	ret

00000760 <radio_recv>:
 760:	9f 92       	push	r9
 762:	af 92       	push	r10
 764:	bf 92       	push	r11
 766:	cf 92       	push	r12
 768:	df 92       	push	r13
 76a:	ef 92       	push	r14
 76c:	ff 92       	push	r15
 76e:	0f 93       	push	r16
 770:	1f 93       	push	r17
 772:	cf 93       	push	r28
 774:	df 93       	push	r29
 776:	90 90 7b 01 	lds	r9, 0x017B	; 0x80017b <__TEXT_REGION_LENGTH__+0x7e017b>
 77a:	7f ef       	ldi	r23, 0xFF	; 255
 77c:	70 93 00 02 	sts	0x0200, r23	; 0x800200 <__data_start>
 780:	ef e4       	ldi	r30, 0x4F	; 79
 782:	f1 e0       	ldi	r31, 0x01	; 1
 784:	70 81       	ld	r23, Z
 786:	72 ff       	sbrs	r23, 2
 788:	fd cf       	rjmp	.-6      	; 0x784 <radio_recv+0x24>
 78a:	cf e4       	ldi	r28, 0x4F	; 79
 78c:	d1 e0       	ldi	r29, 0x01	; 1
 78e:	0f 2e       	mov	r0, r31
 790:	f6 e4       	ldi	r31, 0x46	; 70
 792:	af 2e       	mov	r10, r31
 794:	bb 24       	eor	r11, r11
 796:	b3 94       	inc	r11
 798:	f0 2d       	mov	r31, r0
 79a:	0d c0       	rjmp	.+26     	; 0x7b6 <radio_recv+0x56>
 79c:	f5 01       	movw	r30, r10
 79e:	70 81       	ld	r23, Z
 7a0:	e7 2f       	mov	r30, r23
 7a2:	ef 71       	andi	r30, 0x1F	; 31
 7a4:	f0 e0       	ldi	r31, 0x00	; 0
 7a6:	ae 17       	cp	r26, r30
 7a8:	bf 07       	cpc	r27, r31
 7aa:	44 f4       	brge	.+16     	; 0x7bc <radio_recv+0x5c>
 7ac:	d5 01       	movw	r26, r10
 7ae:	ec 91       	ld	r30, X
 7b0:	ef 71       	andi	r30, 0x1F	; 31
 7b2:	e0 93 00 02 	sts	0x0200, r30	; 0x800200 <__data_start>
 7b6:	a0 91 00 02 	lds	r26, 0x0200	; 0x800200 <__data_start>
 7ba:	b0 e0       	ldi	r27, 0x00	; 0
 7bc:	78 81       	ld	r23, Y
 7be:	73 ff       	sbrs	r23, 3
 7c0:	ed cf       	rjmp	.-38     	; 0x79c <radio_recv+0x3c>
 7c2:	75 ef       	ldi	r23, 0xF5	; 245
 7c4:	79 0d       	add	r23, r9
 7c6:	67 17       	cp	r22, r23
 7c8:	08 f4       	brcc	.+2      	; 0x7cc <radio_recv+0x6c>
 7ca:	76 2f       	mov	r23, r22
 7cc:	e0 91 85 01 	lds	r30, 0x0185	; 0x800185 <__TEXT_REGION_LENGTH__+0x7e0185>
 7d0:	f0 e0       	ldi	r31, 0x00	; 0
 7d2:	fe 2f       	mov	r31, r30
 7d4:	ee 27       	eor	r30, r30
 7d6:	60 91 86 01 	lds	r22, 0x0186	; 0x800186 <__TEXT_REGION_LENGTH__+0x7e0186>
 7da:	e6 2b       	or	r30, r22
 7dc:	da 01       	movw	r26, r20
 7de:	ed 93       	st	X+, r30
 7e0:	fc 93       	st	X, r31
 7e2:	40 91 89 01 	lds	r20, 0x0189	; 0x800189 <__TEXT_REGION_LENGTH__+0x7e0189>
 7e6:	50 e0       	ldi	r21, 0x00	; 0
 7e8:	54 2f       	mov	r21, r20
 7ea:	44 27       	eor	r20, r20
 7ec:	60 91 8a 01 	lds	r22, 0x018A	; 0x80018a <__TEXT_REGION_LENGTH__+0x7e018a>
 7f0:	46 2b       	or	r20, r22
 7f2:	f9 01       	movw	r30, r18
 7f4:	51 83       	std	Z+1, r21	; 0x01
 7f6:	40 83       	st	Z, r20
 7f8:	77 23       	and	r23, r23
 7fa:	99 f0       	breq	.+38     	; 0x822 <radio_recv+0xc2>
 7fc:	a8 2f       	mov	r26, r24
 7fe:	b9 2f       	mov	r27, r25
 800:	4f ef       	ldi	r20, 0xFF	; 255
 802:	47 0f       	add	r20, r23
 804:	50 e0       	ldi	r21, 0x00	; 0
 806:	9a 01       	movw	r18, r20
 808:	24 57       	subi	r18, 0x74	; 116
 80a:	3e 4f       	sbci	r19, 0xFE	; 254
 80c:	eb e8       	ldi	r30, 0x8B	; 139
 80e:	f1 e0       	ldi	r31, 0x01	; 1
 810:	91 91       	ld	r25, Z+
 812:	9d 93       	st	X+, r25
 814:	e2 17       	cp	r30, r18
 816:	f3 07       	cpc	r31, r19
 818:	d9 f7       	brne	.-10     	; 0x810 <radio_recv+0xb0>
 81a:	fa 01       	movw	r30, r20
 81c:	e4 57       	subi	r30, 0x74	; 116
 81e:	fe 4f       	sbci	r31, 0xFE	; 254
 820:	02 c0       	rjmp	.+4      	; 0x826 <radio_recv+0xc6>
 822:	eb e8       	ldi	r30, 0x8B	; 139
 824:	f1 e0       	ldi	r31, 0x01	; 1
 826:	80 81       	ld	r24, Z
 828:	80 93 87 04 	sts	0x0487, r24	; 0x800487 <radio_lqi>
 82c:	d6 01       	movw	r26, r12
 82e:	8c 93       	st	X, r24
 830:	80 91 47 01 	lds	r24, 0x0147	; 0x800147 <__TEXT_REGION_LENGTH__+0x7e0147>
 834:	80 93 88 04 	sts	0x0488, r24	; 0x800488 <radio_energy>
 838:	f7 01       	movw	r30, r14
 83a:	80 83       	st	Z, r24
 83c:	80 91 46 01 	lds	r24, 0x0146	; 0x800146 <__TEXT_REGION_LENGTH__+0x7e0146>
 840:	88 1f       	adc	r24, r24
 842:	88 27       	eor	r24, r24
 844:	88 1f       	adc	r24, r24
 846:	d8 01       	movw	r26, r16
 848:	8c 93       	st	X, r24
 84a:	e1 e4       	ldi	r30, 0x41	; 65
 84c:	f1 e0       	ldi	r31, 0x01	; 1
 84e:	90 81       	ld	r25, Z
 850:	9f 71       	andi	r25, 0x1F	; 31
 852:	96 30       	cpi	r25, 0x06	; 6
 854:	e1 f7       	brne	.-8      	; 0x84e <radio_recv+0xee>
 856:	ec e4       	ldi	r30, 0x4C	; 76
 858:	f1 e0       	ldi	r31, 0x01	; 1
 85a:	80 81       	ld	r24, Z
 85c:	8f 77       	andi	r24, 0x7F	; 127
 85e:	80 83       	st	Z, r24
 860:	80 81       	ld	r24, Z
 862:	80 68       	ori	r24, 0x80	; 128
 864:	80 83       	st	Z, r24
 866:	8f ef       	ldi	r24, 0xFF	; 255
 868:	80 93 4f 01 	sts	0x014F, r24	; 0x80014f <__TEXT_REGION_LENGTH__+0x7e014f>
 86c:	80 91 41 01 	lds	r24, 0x0141	; 0x800141 <__TEXT_REGION_LENGTH__+0x7e0141>
 870:	8e ef       	ldi	r24, 0xFE	; 254
 872:	87 0f       	add	r24, r23
 874:	df 91       	pop	r29
 876:	cf 91       	pop	r28
 878:	1f 91       	pop	r17
 87a:	0f 91       	pop	r16
 87c:	ff 90       	pop	r15
 87e:	ef 90       	pop	r14
 880:	df 90       	pop	r13
 882:	cf 90       	pop	r12
 884:	bf 90       	pop	r11
 886:	af 90       	pop	r10
 888:	9f 90       	pop	r9
 88a:	08 95       	ret

0000088c <serial_init>:
 88c:	4f 92       	push	r4
 88e:	5f 92       	push	r5
 890:	6f 92       	push	r6
 892:	7f 92       	push	r7
 894:	8f 92       	push	r8
 896:	9f 92       	push	r9
 898:	af 92       	push	r10
 89a:	bf 92       	push	r11
 89c:	cf 92       	push	r12
 89e:	df 92       	push	r13
 8a0:	ef 92       	push	r14
 8a2:	ff 92       	push	r15
 8a4:	2b 01       	movw	r4, r22
 8a6:	3c 01       	movw	r6, r24
 8a8:	87 de       	rcall	.-754    	; 0x5b8 <timer_cpuf>
 8aa:	6b 01       	movw	r12, r22
 8ac:	7c 01       	movw	r14, r24
 8ae:	68 94       	set
 8b0:	13 f8       	bld	r1, 3
 8b2:	f6 94       	lsr	r15
 8b4:	e7 94       	ror	r14
 8b6:	d7 94       	ror	r13
 8b8:	c7 94       	ror	r12
 8ba:	16 94       	lsr	r1
 8bc:	d1 f7       	brne	.-12     	; 0x8b2 <serial_init+0x26>
 8be:	0f 2e       	mov	r0, r31
 8c0:	fa e0       	ldi	r31, 0x0A	; 10
 8c2:	8f 2e       	mov	r8, r31
 8c4:	91 2c       	mov	r9, r1
 8c6:	a1 2c       	mov	r10, r1
 8c8:	b1 2c       	mov	r11, r1
 8ca:	f0 2d       	mov	r31, r0
 8cc:	c3 01       	movw	r24, r6
 8ce:	b2 01       	movw	r22, r4
 8d0:	a5 01       	movw	r20, r10
 8d2:	94 01       	movw	r18, r8
 8d4:	5b d0       	rcall	.+182    	; 0x98c <__udivmodsi4>
 8d6:	c7 01       	movw	r24, r14
 8d8:	b6 01       	movw	r22, r12
 8da:	58 d0       	rcall	.+176    	; 0x98c <__udivmodsi4>
 8dc:	ca 01       	movw	r24, r20
 8de:	b9 01       	movw	r22, r18
 8e0:	6b 5f       	subi	r22, 0xFB	; 251
 8e2:	7f 4f       	sbci	r23, 0xFF	; 255
 8e4:	8f 4f       	sbci	r24, 0xFF	; 255
 8e6:	9f 4f       	sbci	r25, 0xFF	; 255
 8e8:	a5 01       	movw	r20, r10
 8ea:	94 01       	movw	r18, r8
 8ec:	4f d0       	rcall	.+158    	; 0x98c <__udivmodsi4>
 8ee:	ba 01       	movw	r22, r20
 8f0:	a9 01       	movw	r20, r18
 8f2:	41 50       	subi	r20, 0x01	; 1
 8f4:	51 09       	sbc	r21, r1
 8f6:	61 09       	sbc	r22, r1
 8f8:	71 09       	sbc	r23, r1
 8fa:	e1 ec       	ldi	r30, 0xC1	; 193
 8fc:	f0 e0       	ldi	r31, 0x00	; 0
 8fe:	10 82       	st	Z, r1
 900:	10 92 c0 00 	sts	0x00C0, r1	; 0x8000c0 <__TEXT_REGION_LENGTH__+0x7e00c0>
 904:	86 e0       	ldi	r24, 0x06	; 6
 906:	80 93 c2 00 	sts	0x00C2, r24	; 0x8000c2 <__TEXT_REGION_LENGTH__+0x7e00c2>
 90a:	85 2f       	mov	r24, r21
 90c:	8f 70       	andi	r24, 0x0F	; 15
 90e:	80 93 c5 00 	sts	0x00C5, r24	; 0x8000c5 <__TEXT_REGION_LENGTH__+0x7e00c5>
 912:	40 93 c4 00 	sts	0x00C4, r20	; 0x8000c4 <__TEXT_REGION_LENGTH__+0x7e00c4>
 916:	88 e1       	ldi	r24, 0x18	; 24
 918:	80 83       	st	Z, r24
 91a:	ee e8       	ldi	r30, 0x8E	; 142
 91c:	f4 e0       	ldi	r31, 0x04	; 4
 91e:	81 e0       	ldi	r24, 0x01	; 1
 920:	92 e0       	ldi	r25, 0x02	; 2
 922:	93 83       	std	Z+3, r25	; 0x03
 924:	82 83       	std	Z+2, r24	; 0x02
 926:	91 83       	std	Z+1, r25	; 0x01
 928:	80 83       	st	Z, r24
 92a:	95 83       	std	Z+5, r25	; 0x05
 92c:	84 83       	std	Z+4, r24	; 0x04
 92e:	81 e0       	ldi	r24, 0x01	; 1
 930:	80 93 8b 04 	sts	0x048B, r24	; 0x80048b <serial_initialised>
 934:	ff 90       	pop	r15
 936:	ef 90       	pop	r14
 938:	df 90       	pop	r13
 93a:	cf 90       	pop	r12
 93c:	bf 90       	pop	r11
 93e:	af 90       	pop	r10
 940:	9f 90       	pop	r9
 942:	8f 90       	pop	r8
 944:	7f 90       	pop	r7
 946:	6f 90       	pop	r6
 948:	5f 90       	pop	r5
 94a:	4f 90       	pop	r4
 94c:	08 95       	ret

0000094e <serial_put>:
 94e:	e0 ec       	ldi	r30, 0xC0	; 192
 950:	f0 e0       	ldi	r31, 0x00	; 0
 952:	90 81       	ld	r25, Z
 954:	95 ff       	sbrs	r25, 5
 956:	fd cf       	rjmp	.-6      	; 0x952 <serial_put+0x4>
 958:	80 93 c6 00 	sts	0x00C6, r24	; 0x8000c6 <__TEXT_REGION_LENGTH__+0x7e00c6>
 95c:	08 95       	ret

0000095e <write>:
 95e:	cf 93       	push	r28
 960:	c8 2f       	mov	r28, r24
 962:	f5 df       	rcall	.-22     	; 0x94e <serial_put>
 964:	8c 2f       	mov	r24, r28
 966:	90 e0       	ldi	r25, 0x00	; 0
 968:	cf 91       	pop	r28
 96a:	08 95       	ret

0000096c <serial_get>:
 96c:	e0 ec       	ldi	r30, 0xC0	; 192
 96e:	f0 e0       	ldi	r31, 0x00	; 0
 970:	80 81       	ld	r24, Z
 972:	88 23       	and	r24, r24
 974:	ec f7       	brge	.-6      	; 0x970 <serial_get+0x4>
 976:	80 91 c6 00 	lds	r24, 0x00C6	; 0x8000c6 <__TEXT_REGION_LENGTH__+0x7e00c6>
 97a:	08 95       	ret

0000097c <read>:
 97c:	cf 93       	push	r28
 97e:	f6 df       	rcall	.-20     	; 0x96c <serial_get>
 980:	c8 2f       	mov	r28, r24
 982:	e5 df       	rcall	.-54     	; 0x94e <serial_put>
 984:	8c 2f       	mov	r24, r28
 986:	90 e0       	ldi	r25, 0x00	; 0
 988:	cf 91       	pop	r28
 98a:	08 95       	ret

0000098c <__udivmodsi4>:
 98c:	a1 e2       	ldi	r26, 0x21	; 33
 98e:	1a 2e       	mov	r1, r26
 990:	aa 1b       	sub	r26, r26
 992:	bb 1b       	sub	r27, r27
 994:	fd 01       	movw	r30, r26
 996:	0d c0       	rjmp	.+26     	; 0x9b2 <__udivmodsi4_ep>

00000998 <__udivmodsi4_loop>:
 998:	aa 1f       	adc	r26, r26
 99a:	bb 1f       	adc	r27, r27
 99c:	ee 1f       	adc	r30, r30
 99e:	ff 1f       	adc	r31, r31
 9a0:	a2 17       	cp	r26, r18
 9a2:	b3 07       	cpc	r27, r19
 9a4:	e4 07       	cpc	r30, r20
 9a6:	f5 07       	cpc	r31, r21
 9a8:	20 f0       	brcs	.+8      	; 0x9b2 <__udivmodsi4_ep>
 9aa:	a2 1b       	sub	r26, r18
 9ac:	b3 0b       	sbc	r27, r19
 9ae:	e4 0b       	sbc	r30, r20
 9b0:	f5 0b       	sbc	r31, r21

000009b2 <__udivmodsi4_ep>:
 9b2:	66 1f       	adc	r22, r22
 9b4:	77 1f       	adc	r23, r23
 9b6:	88 1f       	adc	r24, r24
 9b8:	99 1f       	adc	r25, r25
 9ba:	1a 94       	dec	r1
 9bc:	69 f7       	brne	.-38     	; 0x998 <__udivmodsi4_loop>
 9be:	60 95       	com	r22
 9c0:	70 95       	com	r23
 9c2:	80 95       	com	r24
 9c4:	90 95       	com	r25
 9c6:	9b 01       	movw	r18, r22
 9c8:	ac 01       	movw	r20, r24
 9ca:	bd 01       	movw	r22, r26
 9cc:	cf 01       	movw	r24, r30
 9ce:	08 95       	ret

000009d0 <__mulshisi3>:
 9d0:	b7 ff       	sbrs	r27, 7
 9d2:	04 c0       	rjmp	.+8      	; 0x9dc <__muluhisi3>

000009d4 <__mulohisi3>:
 9d4:	03 d0       	rcall	.+6      	; 0x9dc <__muluhisi3>
 9d6:	82 1b       	sub	r24, r18
 9d8:	93 0b       	sbc	r25, r19
 9da:	08 95       	ret

000009dc <__muluhisi3>:
 9dc:	09 d0       	rcall	.+18     	; 0x9f0 <__umulhisi3>
 9de:	a5 9f       	mul	r26, r21
 9e0:	90 0d       	add	r25, r0
 9e2:	b4 9f       	mul	r27, r20
 9e4:	90 0d       	add	r25, r0
 9e6:	a4 9f       	mul	r26, r20
 9e8:	80 0d       	add	r24, r0
 9ea:	91 1d       	adc	r25, r1
 9ec:	11 24       	eor	r1, r1
 9ee:	08 95       	ret

000009f0 <__umulhisi3>:
 9f0:	a2 9f       	mul	r26, r18
 9f2:	b0 01       	movw	r22, r0
 9f4:	b3 9f       	mul	r27, r19
 9f6:	c0 01       	movw	r24, r0
 9f8:	a3 9f       	mul	r26, r19
 9fa:	70 0d       	add	r23, r0
 9fc:	81 1d       	adc	r24, r1
 9fe:	11 24       	eor	r1, r1
 a00:	91 1d       	adc	r25, r1
 a02:	b2 9f       	mul	r27, r18
 a04:	70 0d       	add	r23, r0
 a06:	81 1d       	adc	r24, r1
 a08:	11 24       	eor	r1, r1
 a0a:	91 1d       	adc	r25, r1
 a0c:	08 95       	ret

00000a0e <printf>:
 a0e:	cf 93       	push	r28
 a10:	df 93       	push	r29
 a12:	cd b7       	in	r28, 0x3d	; 61
 a14:	de b7       	in	r29, 0x3e	; 62
 a16:	ae 01       	movw	r20, r28
 a18:	4b 5f       	subi	r20, 0xFB	; 251
 a1a:	5f 4f       	sbci	r21, 0xFF	; 255
 a1c:	fa 01       	movw	r30, r20
 a1e:	61 91       	ld	r22, Z+
 a20:	71 91       	ld	r23, Z+
 a22:	af 01       	movw	r20, r30
 a24:	80 91 90 04 	lds	r24, 0x0490	; 0x800490 <__iob+0x2>
 a28:	90 91 91 04 	lds	r25, 0x0491	; 0x800491 <__iob+0x3>
 a2c:	33 d0       	rcall	.+102    	; 0xa94 <vfprintf>
 a2e:	df 91       	pop	r29
 a30:	cf 91       	pop	r28
 a32:	08 95       	ret

00000a34 <puts>:
 a34:	0f 93       	push	r16
 a36:	1f 93       	push	r17
 a38:	cf 93       	push	r28
 a3a:	df 93       	push	r29
 a3c:	e0 91 90 04 	lds	r30, 0x0490	; 0x800490 <__iob+0x2>
 a40:	f0 91 91 04 	lds	r31, 0x0491	; 0x800491 <__iob+0x3>
 a44:	23 81       	ldd	r18, Z+3	; 0x03
 a46:	21 ff       	sbrs	r18, 1
 a48:	1b c0       	rjmp	.+54     	; 0xa80 <puts+0x4c>
 a4a:	8c 01       	movw	r16, r24
 a4c:	d0 e0       	ldi	r29, 0x00	; 0
 a4e:	c0 e0       	ldi	r28, 0x00	; 0
 a50:	f8 01       	movw	r30, r16
 a52:	81 91       	ld	r24, Z+
 a54:	8f 01       	movw	r16, r30
 a56:	60 91 90 04 	lds	r22, 0x0490	; 0x800490 <__iob+0x2>
 a5a:	70 91 91 04 	lds	r23, 0x0491	; 0x800491 <__iob+0x3>
 a5e:	db 01       	movw	r26, r22
 a60:	18 96       	adiw	r26, 0x08	; 8
 a62:	ed 91       	ld	r30, X+
 a64:	fc 91       	ld	r31, X
 a66:	19 97       	sbiw	r26, 0x09	; 9
 a68:	88 23       	and	r24, r24
 a6a:	31 f0       	breq	.+12     	; 0xa78 <puts+0x44>
 a6c:	09 95       	icall
 a6e:	89 2b       	or	r24, r25
 a70:	79 f3       	breq	.-34     	; 0xa50 <puts+0x1c>
 a72:	df ef       	ldi	r29, 0xFF	; 255
 a74:	cf ef       	ldi	r28, 0xFF	; 255
 a76:	ec cf       	rjmp	.-40     	; 0xa50 <puts+0x1c>
 a78:	8a e0       	ldi	r24, 0x0A	; 10
 a7a:	09 95       	icall
 a7c:	89 2b       	or	r24, r25
 a7e:	19 f0       	breq	.+6      	; 0xa86 <puts+0x52>
 a80:	8f ef       	ldi	r24, 0xFF	; 255
 a82:	9f ef       	ldi	r25, 0xFF	; 255
 a84:	02 c0       	rjmp	.+4      	; 0xa8a <puts+0x56>
 a86:	8d 2f       	mov	r24, r29
 a88:	9c 2f       	mov	r25, r28
 a8a:	df 91       	pop	r29
 a8c:	cf 91       	pop	r28
 a8e:	1f 91       	pop	r17
 a90:	0f 91       	pop	r16
 a92:	08 95       	ret

00000a94 <vfprintf>:
 a94:	2f 92       	push	r2
 a96:	3f 92       	push	r3
 a98:	4f 92       	push	r4
 a9a:	5f 92       	push	r5
 a9c:	6f 92       	push	r6
 a9e:	7f 92       	push	r7
 aa0:	8f 92       	push	r8
 aa2:	9f 92       	push	r9
 aa4:	af 92       	push	r10
 aa6:	bf 92       	push	r11
 aa8:	cf 92       	push	r12
 aaa:	df 92       	push	r13
 aac:	ef 92       	push	r14
 aae:	ff 92       	push	r15
 ab0:	0f 93       	push	r16
 ab2:	1f 93       	push	r17
 ab4:	cf 93       	push	r28
 ab6:	df 93       	push	r29
 ab8:	cd b7       	in	r28, 0x3d	; 61
 aba:	de b7       	in	r29, 0x3e	; 62
 abc:	2b 97       	sbiw	r28, 0x0b	; 11
 abe:	0f b6       	in	r0, 0x3f	; 63
 ac0:	f8 94       	cli
 ac2:	de bf       	out	0x3e, r29	; 62
 ac4:	0f be       	out	0x3f, r0	; 63
 ac6:	cd bf       	out	0x3d, r28	; 61
 ac8:	6c 01       	movw	r12, r24
 aca:	7b 01       	movw	r14, r22
 acc:	8a 01       	movw	r16, r20
 ace:	fc 01       	movw	r30, r24
 ad0:	17 82       	std	Z+7, r1	; 0x07
 ad2:	16 82       	std	Z+6, r1	; 0x06
 ad4:	83 81       	ldd	r24, Z+3	; 0x03
 ad6:	81 ff       	sbrs	r24, 1
 ad8:	bf c1       	rjmp	.+894    	; 0xe58 <vfprintf+0x3c4>
 ada:	ce 01       	movw	r24, r28
 adc:	01 96       	adiw	r24, 0x01	; 1
 ade:	3c 01       	movw	r6, r24
 ae0:	f6 01       	movw	r30, r12
 ae2:	93 81       	ldd	r25, Z+3	; 0x03
 ae4:	f7 01       	movw	r30, r14
 ae6:	93 fd       	sbrc	r25, 3
 ae8:	85 91       	lpm	r24, Z+
 aea:	93 ff       	sbrs	r25, 3
 aec:	81 91       	ld	r24, Z+
 aee:	7f 01       	movw	r14, r30
 af0:	88 23       	and	r24, r24
 af2:	09 f4       	brne	.+2      	; 0xaf6 <vfprintf+0x62>
 af4:	ad c1       	rjmp	.+858    	; 0xe50 <vfprintf+0x3bc>
 af6:	85 32       	cpi	r24, 0x25	; 37
 af8:	39 f4       	brne	.+14     	; 0xb08 <vfprintf+0x74>
 afa:	93 fd       	sbrc	r25, 3
 afc:	85 91       	lpm	r24, Z+
 afe:	93 ff       	sbrs	r25, 3
 b00:	81 91       	ld	r24, Z+
 b02:	7f 01       	movw	r14, r30
 b04:	85 32       	cpi	r24, 0x25	; 37
 b06:	21 f4       	brne	.+8      	; 0xb10 <vfprintf+0x7c>
 b08:	b6 01       	movw	r22, r12
 b0a:	90 e0       	ldi	r25, 0x00	; 0
 b0c:	d6 d1       	rcall	.+940    	; 0xeba <fputc>
 b0e:	e8 cf       	rjmp	.-48     	; 0xae0 <vfprintf+0x4c>
 b10:	91 2c       	mov	r9, r1
 b12:	21 2c       	mov	r2, r1
 b14:	31 2c       	mov	r3, r1
 b16:	ff e1       	ldi	r31, 0x1F	; 31
 b18:	f3 15       	cp	r31, r3
 b1a:	d8 f0       	brcs	.+54     	; 0xb52 <vfprintf+0xbe>
 b1c:	8b 32       	cpi	r24, 0x2B	; 43
 b1e:	79 f0       	breq	.+30     	; 0xb3e <vfprintf+0xaa>
 b20:	38 f4       	brcc	.+14     	; 0xb30 <vfprintf+0x9c>
 b22:	80 32       	cpi	r24, 0x20	; 32
 b24:	79 f0       	breq	.+30     	; 0xb44 <vfprintf+0xb0>
 b26:	83 32       	cpi	r24, 0x23	; 35
 b28:	a1 f4       	brne	.+40     	; 0xb52 <vfprintf+0xbe>
 b2a:	23 2d       	mov	r18, r3
 b2c:	20 61       	ori	r18, 0x10	; 16
 b2e:	1d c0       	rjmp	.+58     	; 0xb6a <vfprintf+0xd6>
 b30:	8d 32       	cpi	r24, 0x2D	; 45
 b32:	61 f0       	breq	.+24     	; 0xb4c <vfprintf+0xb8>
 b34:	80 33       	cpi	r24, 0x30	; 48
 b36:	69 f4       	brne	.+26     	; 0xb52 <vfprintf+0xbe>
 b38:	23 2d       	mov	r18, r3
 b3a:	21 60       	ori	r18, 0x01	; 1
 b3c:	16 c0       	rjmp	.+44     	; 0xb6a <vfprintf+0xd6>
 b3e:	83 2d       	mov	r24, r3
 b40:	82 60       	ori	r24, 0x02	; 2
 b42:	38 2e       	mov	r3, r24
 b44:	e3 2d       	mov	r30, r3
 b46:	e4 60       	ori	r30, 0x04	; 4
 b48:	3e 2e       	mov	r3, r30
 b4a:	2a c0       	rjmp	.+84     	; 0xba0 <vfprintf+0x10c>
 b4c:	f3 2d       	mov	r31, r3
 b4e:	f8 60       	ori	r31, 0x08	; 8
 b50:	1d c0       	rjmp	.+58     	; 0xb8c <vfprintf+0xf8>
 b52:	37 fc       	sbrc	r3, 7
 b54:	2d c0       	rjmp	.+90     	; 0xbb0 <vfprintf+0x11c>
 b56:	20 ed       	ldi	r18, 0xD0	; 208
 b58:	28 0f       	add	r18, r24
 b5a:	2a 30       	cpi	r18, 0x0A	; 10
 b5c:	40 f0       	brcs	.+16     	; 0xb6e <vfprintf+0xda>
 b5e:	8e 32       	cpi	r24, 0x2E	; 46
 b60:	b9 f4       	brne	.+46     	; 0xb90 <vfprintf+0xfc>
 b62:	36 fc       	sbrc	r3, 6
 b64:	75 c1       	rjmp	.+746    	; 0xe50 <vfprintf+0x3bc>
 b66:	23 2d       	mov	r18, r3
 b68:	20 64       	ori	r18, 0x40	; 64
 b6a:	32 2e       	mov	r3, r18
 b6c:	19 c0       	rjmp	.+50     	; 0xba0 <vfprintf+0x10c>
 b6e:	36 fe       	sbrs	r3, 6
 b70:	06 c0       	rjmp	.+12     	; 0xb7e <vfprintf+0xea>
 b72:	8a e0       	ldi	r24, 0x0A	; 10
 b74:	98 9e       	mul	r9, r24
 b76:	20 0d       	add	r18, r0
 b78:	11 24       	eor	r1, r1
 b7a:	92 2e       	mov	r9, r18
 b7c:	11 c0       	rjmp	.+34     	; 0xba0 <vfprintf+0x10c>
 b7e:	ea e0       	ldi	r30, 0x0A	; 10
 b80:	2e 9e       	mul	r2, r30
 b82:	20 0d       	add	r18, r0
 b84:	11 24       	eor	r1, r1
 b86:	22 2e       	mov	r2, r18
 b88:	f3 2d       	mov	r31, r3
 b8a:	f0 62       	ori	r31, 0x20	; 32
 b8c:	3f 2e       	mov	r3, r31
 b8e:	08 c0       	rjmp	.+16     	; 0xba0 <vfprintf+0x10c>
 b90:	8c 36       	cpi	r24, 0x6C	; 108
 b92:	21 f4       	brne	.+8      	; 0xb9c <vfprintf+0x108>
 b94:	83 2d       	mov	r24, r3
 b96:	80 68       	ori	r24, 0x80	; 128
 b98:	38 2e       	mov	r3, r24
 b9a:	02 c0       	rjmp	.+4      	; 0xba0 <vfprintf+0x10c>
 b9c:	88 36       	cpi	r24, 0x68	; 104
 b9e:	41 f4       	brne	.+16     	; 0xbb0 <vfprintf+0x11c>
 ba0:	f7 01       	movw	r30, r14
 ba2:	93 fd       	sbrc	r25, 3
 ba4:	85 91       	lpm	r24, Z+
 ba6:	93 ff       	sbrs	r25, 3
 ba8:	81 91       	ld	r24, Z+
 baa:	7f 01       	movw	r14, r30
 bac:	81 11       	cpse	r24, r1
 bae:	b3 cf       	rjmp	.-154    	; 0xb16 <vfprintf+0x82>
 bb0:	98 2f       	mov	r25, r24
 bb2:	9f 7d       	andi	r25, 0xDF	; 223
 bb4:	95 54       	subi	r25, 0x45	; 69
 bb6:	93 30       	cpi	r25, 0x03	; 3
 bb8:	28 f4       	brcc	.+10     	; 0xbc4 <vfprintf+0x130>
 bba:	0c 5f       	subi	r16, 0xFC	; 252
 bbc:	1f 4f       	sbci	r17, 0xFF	; 255
 bbe:	9f e3       	ldi	r25, 0x3F	; 63
 bc0:	99 83       	std	Y+1, r25	; 0x01
 bc2:	0d c0       	rjmp	.+26     	; 0xbde <vfprintf+0x14a>
 bc4:	83 36       	cpi	r24, 0x63	; 99
 bc6:	31 f0       	breq	.+12     	; 0xbd4 <vfprintf+0x140>
 bc8:	83 37       	cpi	r24, 0x73	; 115
 bca:	71 f0       	breq	.+28     	; 0xbe8 <vfprintf+0x154>
 bcc:	83 35       	cpi	r24, 0x53	; 83
 bce:	09 f0       	breq	.+2      	; 0xbd2 <vfprintf+0x13e>
 bd0:	55 c0       	rjmp	.+170    	; 0xc7c <vfprintf+0x1e8>
 bd2:	20 c0       	rjmp	.+64     	; 0xc14 <vfprintf+0x180>
 bd4:	f8 01       	movw	r30, r16
 bd6:	80 81       	ld	r24, Z
 bd8:	89 83       	std	Y+1, r24	; 0x01
 bda:	0e 5f       	subi	r16, 0xFE	; 254
 bdc:	1f 4f       	sbci	r17, 0xFF	; 255
 bde:	88 24       	eor	r8, r8
 be0:	83 94       	inc	r8
 be2:	91 2c       	mov	r9, r1
 be4:	53 01       	movw	r10, r6
 be6:	12 c0       	rjmp	.+36     	; 0xc0c <vfprintf+0x178>
 be8:	28 01       	movw	r4, r16
 bea:	f2 e0       	ldi	r31, 0x02	; 2
 bec:	4f 0e       	add	r4, r31
 bee:	51 1c       	adc	r5, r1
 bf0:	f8 01       	movw	r30, r16
 bf2:	a0 80       	ld	r10, Z
 bf4:	b1 80       	ldd	r11, Z+1	; 0x01
 bf6:	36 fe       	sbrs	r3, 6
 bf8:	03 c0       	rjmp	.+6      	; 0xc00 <vfprintf+0x16c>
 bfa:	69 2d       	mov	r22, r9
 bfc:	70 e0       	ldi	r23, 0x00	; 0
 bfe:	02 c0       	rjmp	.+4      	; 0xc04 <vfprintf+0x170>
 c00:	6f ef       	ldi	r22, 0xFF	; 255
 c02:	7f ef       	ldi	r23, 0xFF	; 255
 c04:	c5 01       	movw	r24, r10
 c06:	4e d1       	rcall	.+668    	; 0xea4 <strnlen>
 c08:	4c 01       	movw	r8, r24
 c0a:	82 01       	movw	r16, r4
 c0c:	f3 2d       	mov	r31, r3
 c0e:	ff 77       	andi	r31, 0x7F	; 127
 c10:	3f 2e       	mov	r3, r31
 c12:	15 c0       	rjmp	.+42     	; 0xc3e <vfprintf+0x1aa>
 c14:	28 01       	movw	r4, r16
 c16:	22 e0       	ldi	r18, 0x02	; 2
 c18:	42 0e       	add	r4, r18
 c1a:	51 1c       	adc	r5, r1
 c1c:	f8 01       	movw	r30, r16
 c1e:	a0 80       	ld	r10, Z
 c20:	b1 80       	ldd	r11, Z+1	; 0x01
 c22:	36 fe       	sbrs	r3, 6
 c24:	03 c0       	rjmp	.+6      	; 0xc2c <vfprintf+0x198>
 c26:	69 2d       	mov	r22, r9
 c28:	70 e0       	ldi	r23, 0x00	; 0
 c2a:	02 c0       	rjmp	.+4      	; 0xc30 <vfprintf+0x19c>
 c2c:	6f ef       	ldi	r22, 0xFF	; 255
 c2e:	7f ef       	ldi	r23, 0xFF	; 255
 c30:	c5 01       	movw	r24, r10
 c32:	2d d1       	rcall	.+602    	; 0xe8e <strnlen_P>
 c34:	4c 01       	movw	r8, r24
 c36:	f3 2d       	mov	r31, r3
 c38:	f0 68       	ori	r31, 0x80	; 128
 c3a:	3f 2e       	mov	r3, r31
 c3c:	82 01       	movw	r16, r4
 c3e:	33 fc       	sbrc	r3, 3
 c40:	19 c0       	rjmp	.+50     	; 0xc74 <vfprintf+0x1e0>
 c42:	82 2d       	mov	r24, r2
 c44:	90 e0       	ldi	r25, 0x00	; 0
 c46:	88 16       	cp	r8, r24
 c48:	99 06       	cpc	r9, r25
 c4a:	a0 f4       	brcc	.+40     	; 0xc74 <vfprintf+0x1e0>
 c4c:	b6 01       	movw	r22, r12
 c4e:	80 e2       	ldi	r24, 0x20	; 32
 c50:	90 e0       	ldi	r25, 0x00	; 0
 c52:	33 d1       	rcall	.+614    	; 0xeba <fputc>
 c54:	2a 94       	dec	r2
 c56:	f5 cf       	rjmp	.-22     	; 0xc42 <vfprintf+0x1ae>
 c58:	f5 01       	movw	r30, r10
 c5a:	37 fc       	sbrc	r3, 7
 c5c:	85 91       	lpm	r24, Z+
 c5e:	37 fe       	sbrs	r3, 7
 c60:	81 91       	ld	r24, Z+
 c62:	5f 01       	movw	r10, r30
 c64:	b6 01       	movw	r22, r12
 c66:	90 e0       	ldi	r25, 0x00	; 0
 c68:	28 d1       	rcall	.+592    	; 0xeba <fputc>
 c6a:	21 10       	cpse	r2, r1
 c6c:	2a 94       	dec	r2
 c6e:	21 e0       	ldi	r18, 0x01	; 1
 c70:	82 1a       	sub	r8, r18
 c72:	91 08       	sbc	r9, r1
 c74:	81 14       	cp	r8, r1
 c76:	91 04       	cpc	r9, r1
 c78:	79 f7       	brne	.-34     	; 0xc58 <vfprintf+0x1c4>
 c7a:	e1 c0       	rjmp	.+450    	; 0xe3e <vfprintf+0x3aa>
 c7c:	84 36       	cpi	r24, 0x64	; 100
 c7e:	11 f0       	breq	.+4      	; 0xc84 <vfprintf+0x1f0>
 c80:	89 36       	cpi	r24, 0x69	; 105
 c82:	39 f5       	brne	.+78     	; 0xcd2 <vfprintf+0x23e>
 c84:	f8 01       	movw	r30, r16
 c86:	37 fe       	sbrs	r3, 7
 c88:	07 c0       	rjmp	.+14     	; 0xc98 <vfprintf+0x204>
 c8a:	60 81       	ld	r22, Z
 c8c:	71 81       	ldd	r23, Z+1	; 0x01
 c8e:	82 81       	ldd	r24, Z+2	; 0x02
 c90:	93 81       	ldd	r25, Z+3	; 0x03
 c92:	0c 5f       	subi	r16, 0xFC	; 252
 c94:	1f 4f       	sbci	r17, 0xFF	; 255
 c96:	08 c0       	rjmp	.+16     	; 0xca8 <vfprintf+0x214>
 c98:	60 81       	ld	r22, Z
 c9a:	71 81       	ldd	r23, Z+1	; 0x01
 c9c:	07 2e       	mov	r0, r23
 c9e:	00 0c       	add	r0, r0
 ca0:	88 0b       	sbc	r24, r24
 ca2:	99 0b       	sbc	r25, r25
 ca4:	0e 5f       	subi	r16, 0xFE	; 254
 ca6:	1f 4f       	sbci	r17, 0xFF	; 255
 ca8:	f3 2d       	mov	r31, r3
 caa:	ff 76       	andi	r31, 0x6F	; 111
 cac:	3f 2e       	mov	r3, r31
 cae:	97 ff       	sbrs	r25, 7
 cb0:	09 c0       	rjmp	.+18     	; 0xcc4 <vfprintf+0x230>
 cb2:	90 95       	com	r25
 cb4:	80 95       	com	r24
 cb6:	70 95       	com	r23
 cb8:	61 95       	neg	r22
 cba:	7f 4f       	sbci	r23, 0xFF	; 255
 cbc:	8f 4f       	sbci	r24, 0xFF	; 255
 cbe:	9f 4f       	sbci	r25, 0xFF	; 255
 cc0:	f0 68       	ori	r31, 0x80	; 128
 cc2:	3f 2e       	mov	r3, r31
 cc4:	2a e0       	ldi	r18, 0x0A	; 10
 cc6:	30 e0       	ldi	r19, 0x00	; 0
 cc8:	a3 01       	movw	r20, r6
 cca:	33 d1       	rcall	.+614    	; 0xf32 <__ultoa_invert>
 ccc:	88 2e       	mov	r8, r24
 cce:	86 18       	sub	r8, r6
 cd0:	44 c0       	rjmp	.+136    	; 0xd5a <vfprintf+0x2c6>
 cd2:	85 37       	cpi	r24, 0x75	; 117
 cd4:	31 f4       	brne	.+12     	; 0xce2 <vfprintf+0x24e>
 cd6:	23 2d       	mov	r18, r3
 cd8:	2f 7e       	andi	r18, 0xEF	; 239
 cda:	b2 2e       	mov	r11, r18
 cdc:	2a e0       	ldi	r18, 0x0A	; 10
 cde:	30 e0       	ldi	r19, 0x00	; 0
 ce0:	25 c0       	rjmp	.+74     	; 0xd2c <vfprintf+0x298>
 ce2:	93 2d       	mov	r25, r3
 ce4:	99 7f       	andi	r25, 0xF9	; 249
 ce6:	b9 2e       	mov	r11, r25
 ce8:	8f 36       	cpi	r24, 0x6F	; 111
 cea:	c1 f0       	breq	.+48     	; 0xd1c <vfprintf+0x288>
 cec:	18 f4       	brcc	.+6      	; 0xcf4 <vfprintf+0x260>
 cee:	88 35       	cpi	r24, 0x58	; 88
 cf0:	79 f0       	breq	.+30     	; 0xd10 <vfprintf+0x27c>
 cf2:	ae c0       	rjmp	.+348    	; 0xe50 <vfprintf+0x3bc>
 cf4:	80 37       	cpi	r24, 0x70	; 112
 cf6:	19 f0       	breq	.+6      	; 0xcfe <vfprintf+0x26a>
 cf8:	88 37       	cpi	r24, 0x78	; 120
 cfa:	21 f0       	breq	.+8      	; 0xd04 <vfprintf+0x270>
 cfc:	a9 c0       	rjmp	.+338    	; 0xe50 <vfprintf+0x3bc>
 cfe:	e9 2f       	mov	r30, r25
 d00:	e0 61       	ori	r30, 0x10	; 16
 d02:	be 2e       	mov	r11, r30
 d04:	b4 fe       	sbrs	r11, 4
 d06:	0d c0       	rjmp	.+26     	; 0xd22 <vfprintf+0x28e>
 d08:	fb 2d       	mov	r31, r11
 d0a:	f4 60       	ori	r31, 0x04	; 4
 d0c:	bf 2e       	mov	r11, r31
 d0e:	09 c0       	rjmp	.+18     	; 0xd22 <vfprintf+0x28e>
 d10:	34 fe       	sbrs	r3, 4
 d12:	0a c0       	rjmp	.+20     	; 0xd28 <vfprintf+0x294>
 d14:	29 2f       	mov	r18, r25
 d16:	26 60       	ori	r18, 0x06	; 6
 d18:	b2 2e       	mov	r11, r18
 d1a:	06 c0       	rjmp	.+12     	; 0xd28 <vfprintf+0x294>
 d1c:	28 e0       	ldi	r18, 0x08	; 8
 d1e:	30 e0       	ldi	r19, 0x00	; 0
 d20:	05 c0       	rjmp	.+10     	; 0xd2c <vfprintf+0x298>
 d22:	20 e1       	ldi	r18, 0x10	; 16
 d24:	30 e0       	ldi	r19, 0x00	; 0
 d26:	02 c0       	rjmp	.+4      	; 0xd2c <vfprintf+0x298>
 d28:	20 e1       	ldi	r18, 0x10	; 16
 d2a:	32 e0       	ldi	r19, 0x02	; 2
 d2c:	f8 01       	movw	r30, r16
 d2e:	b7 fe       	sbrs	r11, 7
 d30:	07 c0       	rjmp	.+14     	; 0xd40 <vfprintf+0x2ac>
 d32:	60 81       	ld	r22, Z
 d34:	71 81       	ldd	r23, Z+1	; 0x01
 d36:	82 81       	ldd	r24, Z+2	; 0x02
 d38:	93 81       	ldd	r25, Z+3	; 0x03
 d3a:	0c 5f       	subi	r16, 0xFC	; 252
 d3c:	1f 4f       	sbci	r17, 0xFF	; 255
 d3e:	06 c0       	rjmp	.+12     	; 0xd4c <vfprintf+0x2b8>
 d40:	60 81       	ld	r22, Z
 d42:	71 81       	ldd	r23, Z+1	; 0x01
 d44:	80 e0       	ldi	r24, 0x00	; 0
 d46:	90 e0       	ldi	r25, 0x00	; 0
 d48:	0e 5f       	subi	r16, 0xFE	; 254
 d4a:	1f 4f       	sbci	r17, 0xFF	; 255
 d4c:	a3 01       	movw	r20, r6
 d4e:	f1 d0       	rcall	.+482    	; 0xf32 <__ultoa_invert>
 d50:	88 2e       	mov	r8, r24
 d52:	86 18       	sub	r8, r6
 d54:	fb 2d       	mov	r31, r11
 d56:	ff 77       	andi	r31, 0x7F	; 127
 d58:	3f 2e       	mov	r3, r31
 d5a:	36 fe       	sbrs	r3, 6
 d5c:	0d c0       	rjmp	.+26     	; 0xd78 <vfprintf+0x2e4>
 d5e:	23 2d       	mov	r18, r3
 d60:	2e 7f       	andi	r18, 0xFE	; 254
 d62:	a2 2e       	mov	r10, r18
 d64:	89 14       	cp	r8, r9
 d66:	58 f4       	brcc	.+22     	; 0xd7e <vfprintf+0x2ea>
 d68:	34 fe       	sbrs	r3, 4
 d6a:	0b c0       	rjmp	.+22     	; 0xd82 <vfprintf+0x2ee>
 d6c:	32 fc       	sbrc	r3, 2
 d6e:	09 c0       	rjmp	.+18     	; 0xd82 <vfprintf+0x2ee>
 d70:	83 2d       	mov	r24, r3
 d72:	8e 7e       	andi	r24, 0xEE	; 238
 d74:	a8 2e       	mov	r10, r24
 d76:	05 c0       	rjmp	.+10     	; 0xd82 <vfprintf+0x2ee>
 d78:	b8 2c       	mov	r11, r8
 d7a:	a3 2c       	mov	r10, r3
 d7c:	03 c0       	rjmp	.+6      	; 0xd84 <vfprintf+0x2f0>
 d7e:	b8 2c       	mov	r11, r8
 d80:	01 c0       	rjmp	.+2      	; 0xd84 <vfprintf+0x2f0>
 d82:	b9 2c       	mov	r11, r9
 d84:	a4 fe       	sbrs	r10, 4
 d86:	0f c0       	rjmp	.+30     	; 0xda6 <vfprintf+0x312>
 d88:	fe 01       	movw	r30, r28
 d8a:	e8 0d       	add	r30, r8
 d8c:	f1 1d       	adc	r31, r1
 d8e:	80 81       	ld	r24, Z
 d90:	80 33       	cpi	r24, 0x30	; 48
 d92:	21 f4       	brne	.+8      	; 0xd9c <vfprintf+0x308>
 d94:	9a 2d       	mov	r25, r10
 d96:	99 7e       	andi	r25, 0xE9	; 233
 d98:	a9 2e       	mov	r10, r25
 d9a:	09 c0       	rjmp	.+18     	; 0xdae <vfprintf+0x31a>
 d9c:	a2 fe       	sbrs	r10, 2
 d9e:	06 c0       	rjmp	.+12     	; 0xdac <vfprintf+0x318>
 da0:	b3 94       	inc	r11
 da2:	b3 94       	inc	r11
 da4:	04 c0       	rjmp	.+8      	; 0xdae <vfprintf+0x31a>
 da6:	8a 2d       	mov	r24, r10
 da8:	86 78       	andi	r24, 0x86	; 134
 daa:	09 f0       	breq	.+2      	; 0xdae <vfprintf+0x31a>
 dac:	b3 94       	inc	r11
 dae:	a3 fc       	sbrc	r10, 3
 db0:	10 c0       	rjmp	.+32     	; 0xdd2 <vfprintf+0x33e>
 db2:	a0 fe       	sbrs	r10, 0
 db4:	06 c0       	rjmp	.+12     	; 0xdc2 <vfprintf+0x32e>
 db6:	b2 14       	cp	r11, r2
 db8:	80 f4       	brcc	.+32     	; 0xdda <vfprintf+0x346>
 dba:	28 0c       	add	r2, r8
 dbc:	92 2c       	mov	r9, r2
 dbe:	9b 18       	sub	r9, r11
 dc0:	0d c0       	rjmp	.+26     	; 0xddc <vfprintf+0x348>
 dc2:	b2 14       	cp	r11, r2
 dc4:	58 f4       	brcc	.+22     	; 0xddc <vfprintf+0x348>
 dc6:	b6 01       	movw	r22, r12
 dc8:	80 e2       	ldi	r24, 0x20	; 32
 dca:	90 e0       	ldi	r25, 0x00	; 0
 dcc:	76 d0       	rcall	.+236    	; 0xeba <fputc>
 dce:	b3 94       	inc	r11
 dd0:	f8 cf       	rjmp	.-16     	; 0xdc2 <vfprintf+0x32e>
 dd2:	b2 14       	cp	r11, r2
 dd4:	18 f4       	brcc	.+6      	; 0xddc <vfprintf+0x348>
 dd6:	2b 18       	sub	r2, r11
 dd8:	02 c0       	rjmp	.+4      	; 0xdde <vfprintf+0x34a>
 dda:	98 2c       	mov	r9, r8
 ddc:	21 2c       	mov	r2, r1
 dde:	a4 fe       	sbrs	r10, 4
 de0:	0f c0       	rjmp	.+30     	; 0xe00 <vfprintf+0x36c>
 de2:	b6 01       	movw	r22, r12
 de4:	80 e3       	ldi	r24, 0x30	; 48
 de6:	90 e0       	ldi	r25, 0x00	; 0
 de8:	68 d0       	rcall	.+208    	; 0xeba <fputc>
 dea:	a2 fe       	sbrs	r10, 2
 dec:	16 c0       	rjmp	.+44     	; 0xe1a <vfprintf+0x386>
 dee:	a1 fc       	sbrc	r10, 1
 df0:	03 c0       	rjmp	.+6      	; 0xdf8 <vfprintf+0x364>
 df2:	88 e7       	ldi	r24, 0x78	; 120
 df4:	90 e0       	ldi	r25, 0x00	; 0
 df6:	02 c0       	rjmp	.+4      	; 0xdfc <vfprintf+0x368>
 df8:	88 e5       	ldi	r24, 0x58	; 88
 dfa:	90 e0       	ldi	r25, 0x00	; 0
 dfc:	b6 01       	movw	r22, r12
 dfe:	0c c0       	rjmp	.+24     	; 0xe18 <vfprintf+0x384>
 e00:	8a 2d       	mov	r24, r10
 e02:	86 78       	andi	r24, 0x86	; 134
 e04:	51 f0       	breq	.+20     	; 0xe1a <vfprintf+0x386>
 e06:	a1 fe       	sbrs	r10, 1
 e08:	02 c0       	rjmp	.+4      	; 0xe0e <vfprintf+0x37a>
 e0a:	8b e2       	ldi	r24, 0x2B	; 43
 e0c:	01 c0       	rjmp	.+2      	; 0xe10 <vfprintf+0x37c>
 e0e:	80 e2       	ldi	r24, 0x20	; 32
 e10:	a7 fc       	sbrc	r10, 7
 e12:	8d e2       	ldi	r24, 0x2D	; 45
 e14:	b6 01       	movw	r22, r12
 e16:	90 e0       	ldi	r25, 0x00	; 0
 e18:	50 d0       	rcall	.+160    	; 0xeba <fputc>
 e1a:	89 14       	cp	r8, r9
 e1c:	30 f4       	brcc	.+12     	; 0xe2a <vfprintf+0x396>
 e1e:	b6 01       	movw	r22, r12
 e20:	80 e3       	ldi	r24, 0x30	; 48
 e22:	90 e0       	ldi	r25, 0x00	; 0
 e24:	4a d0       	rcall	.+148    	; 0xeba <fputc>
 e26:	9a 94       	dec	r9
 e28:	f8 cf       	rjmp	.-16     	; 0xe1a <vfprintf+0x386>
 e2a:	8a 94       	dec	r8
 e2c:	f3 01       	movw	r30, r6
 e2e:	e8 0d       	add	r30, r8
 e30:	f1 1d       	adc	r31, r1
 e32:	80 81       	ld	r24, Z
 e34:	b6 01       	movw	r22, r12
 e36:	90 e0       	ldi	r25, 0x00	; 0
 e38:	40 d0       	rcall	.+128    	; 0xeba <fputc>
 e3a:	81 10       	cpse	r8, r1
 e3c:	f6 cf       	rjmp	.-20     	; 0xe2a <vfprintf+0x396>
 e3e:	22 20       	and	r2, r2
 e40:	09 f4       	brne	.+2      	; 0xe44 <vfprintf+0x3b0>
 e42:	4e ce       	rjmp	.-868    	; 0xae0 <vfprintf+0x4c>
 e44:	b6 01       	movw	r22, r12
 e46:	80 e2       	ldi	r24, 0x20	; 32
 e48:	90 e0       	ldi	r25, 0x00	; 0
 e4a:	37 d0       	rcall	.+110    	; 0xeba <fputc>
 e4c:	2a 94       	dec	r2
 e4e:	f7 cf       	rjmp	.-18     	; 0xe3e <vfprintf+0x3aa>
 e50:	f6 01       	movw	r30, r12
 e52:	86 81       	ldd	r24, Z+6	; 0x06
 e54:	97 81       	ldd	r25, Z+7	; 0x07
 e56:	02 c0       	rjmp	.+4      	; 0xe5c <vfprintf+0x3c8>
 e58:	8f ef       	ldi	r24, 0xFF	; 255
 e5a:	9f ef       	ldi	r25, 0xFF	; 255
 e5c:	2b 96       	adiw	r28, 0x0b	; 11
 e5e:	0f b6       	in	r0, 0x3f	; 63
 e60:	f8 94       	cli
 e62:	de bf       	out	0x3e, r29	; 62
 e64:	0f be       	out	0x3f, r0	; 63
 e66:	cd bf       	out	0x3d, r28	; 61
 e68:	df 91       	pop	r29
 e6a:	cf 91       	pop	r28
 e6c:	1f 91       	pop	r17
 e6e:	0f 91       	pop	r16
 e70:	ff 90       	pop	r15
 e72:	ef 90       	pop	r14
 e74:	df 90       	pop	r13
 e76:	cf 90       	pop	r12
 e78:	bf 90       	pop	r11
 e7a:	af 90       	pop	r10
 e7c:	9f 90       	pop	r9
 e7e:	8f 90       	pop	r8
 e80:	7f 90       	pop	r7
 e82:	6f 90       	pop	r6
 e84:	5f 90       	pop	r5
 e86:	4f 90       	pop	r4
 e88:	3f 90       	pop	r3
 e8a:	2f 90       	pop	r2
 e8c:	08 95       	ret

00000e8e <strnlen_P>:
 e8e:	fc 01       	movw	r30, r24
 e90:	05 90       	lpm	r0, Z+
 e92:	61 50       	subi	r22, 0x01	; 1
 e94:	70 40       	sbci	r23, 0x00	; 0
 e96:	01 10       	cpse	r0, r1
 e98:	d8 f7       	brcc	.-10     	; 0xe90 <strnlen_P+0x2>
 e9a:	80 95       	com	r24
 e9c:	90 95       	com	r25
 e9e:	8e 0f       	add	r24, r30
 ea0:	9f 1f       	adc	r25, r31
 ea2:	08 95       	ret

00000ea4 <strnlen>:
 ea4:	fc 01       	movw	r30, r24
 ea6:	61 50       	subi	r22, 0x01	; 1
 ea8:	70 40       	sbci	r23, 0x00	; 0
 eaa:	01 90       	ld	r0, Z+
 eac:	01 10       	cpse	r0, r1
 eae:	d8 f7       	brcc	.-10     	; 0xea6 <strnlen+0x2>
 eb0:	80 95       	com	r24
 eb2:	90 95       	com	r25
 eb4:	8e 0f       	add	r24, r30
 eb6:	9f 1f       	adc	r25, r31
 eb8:	08 95       	ret

00000eba <fputc>:
 eba:	0f 93       	push	r16
 ebc:	1f 93       	push	r17
 ebe:	cf 93       	push	r28
 ec0:	df 93       	push	r29
 ec2:	fb 01       	movw	r30, r22
 ec4:	23 81       	ldd	r18, Z+3	; 0x03
 ec6:	21 fd       	sbrc	r18, 1
 ec8:	03 c0       	rjmp	.+6      	; 0xed0 <fputc+0x16>
 eca:	8f ef       	ldi	r24, 0xFF	; 255
 ecc:	9f ef       	ldi	r25, 0xFF	; 255
 ece:	2c c0       	rjmp	.+88     	; 0xf28 <fputc+0x6e>
 ed0:	22 ff       	sbrs	r18, 2
 ed2:	16 c0       	rjmp	.+44     	; 0xf00 <fputc+0x46>
 ed4:	46 81       	ldd	r20, Z+6	; 0x06
 ed6:	57 81       	ldd	r21, Z+7	; 0x07
 ed8:	24 81       	ldd	r18, Z+4	; 0x04
 eda:	35 81       	ldd	r19, Z+5	; 0x05
 edc:	42 17       	cp	r20, r18
 ede:	53 07       	cpc	r21, r19
 ee0:	44 f4       	brge	.+16     	; 0xef2 <fputc+0x38>
 ee2:	a0 81       	ld	r26, Z
 ee4:	b1 81       	ldd	r27, Z+1	; 0x01
 ee6:	9d 01       	movw	r18, r26
 ee8:	2f 5f       	subi	r18, 0xFF	; 255
 eea:	3f 4f       	sbci	r19, 0xFF	; 255
 eec:	31 83       	std	Z+1, r19	; 0x01
 eee:	20 83       	st	Z, r18
 ef0:	8c 93       	st	X, r24
 ef2:	26 81       	ldd	r18, Z+6	; 0x06
 ef4:	37 81       	ldd	r19, Z+7	; 0x07
 ef6:	2f 5f       	subi	r18, 0xFF	; 255
 ef8:	3f 4f       	sbci	r19, 0xFF	; 255
 efa:	37 83       	std	Z+7, r19	; 0x07
 efc:	26 83       	std	Z+6, r18	; 0x06
 efe:	14 c0       	rjmp	.+40     	; 0xf28 <fputc+0x6e>
 f00:	8b 01       	movw	r16, r22
 f02:	ec 01       	movw	r28, r24
 f04:	fb 01       	movw	r30, r22
 f06:	00 84       	ldd	r0, Z+8	; 0x08
 f08:	f1 85       	ldd	r31, Z+9	; 0x09
 f0a:	e0 2d       	mov	r30, r0
 f0c:	09 95       	icall
 f0e:	89 2b       	or	r24, r25
 f10:	e1 f6       	brne	.-72     	; 0xeca <fputc+0x10>
 f12:	d8 01       	movw	r26, r16
 f14:	16 96       	adiw	r26, 0x06	; 6
 f16:	8d 91       	ld	r24, X+
 f18:	9c 91       	ld	r25, X
 f1a:	17 97       	sbiw	r26, 0x07	; 7
 f1c:	01 96       	adiw	r24, 0x01	; 1
 f1e:	17 96       	adiw	r26, 0x07	; 7
 f20:	9c 93       	st	X, r25
 f22:	8e 93       	st	-X, r24
 f24:	16 97       	sbiw	r26, 0x06	; 6
 f26:	ce 01       	movw	r24, r28
 f28:	df 91       	pop	r29
 f2a:	cf 91       	pop	r28
 f2c:	1f 91       	pop	r17
 f2e:	0f 91       	pop	r16
 f30:	08 95       	ret

00000f32 <__ultoa_invert>:
 f32:	fa 01       	movw	r30, r20
 f34:	aa 27       	eor	r26, r26
 f36:	28 30       	cpi	r18, 0x08	; 8
 f38:	51 f1       	breq	.+84     	; 0xf8e <__ultoa_invert+0x5c>
 f3a:	20 31       	cpi	r18, 0x10	; 16
 f3c:	81 f1       	breq	.+96     	; 0xf9e <__ultoa_invert+0x6c>
 f3e:	e8 94       	clt
 f40:	6f 93       	push	r22
 f42:	6e 7f       	andi	r22, 0xFE	; 254
 f44:	6e 5f       	subi	r22, 0xFE	; 254
 f46:	7f 4f       	sbci	r23, 0xFF	; 255
 f48:	8f 4f       	sbci	r24, 0xFF	; 255
 f4a:	9f 4f       	sbci	r25, 0xFF	; 255
 f4c:	af 4f       	sbci	r26, 0xFF	; 255
 f4e:	b1 e0       	ldi	r27, 0x01	; 1
 f50:	3e d0       	rcall	.+124    	; 0xfce <__ultoa_invert+0x9c>
 f52:	b4 e0       	ldi	r27, 0x04	; 4
 f54:	3c d0       	rcall	.+120    	; 0xfce <__ultoa_invert+0x9c>
 f56:	67 0f       	add	r22, r23
 f58:	78 1f       	adc	r23, r24
 f5a:	89 1f       	adc	r24, r25
 f5c:	9a 1f       	adc	r25, r26
 f5e:	a1 1d       	adc	r26, r1
 f60:	68 0f       	add	r22, r24
 f62:	79 1f       	adc	r23, r25
 f64:	8a 1f       	adc	r24, r26
 f66:	91 1d       	adc	r25, r1
 f68:	a1 1d       	adc	r26, r1
 f6a:	6a 0f       	add	r22, r26
 f6c:	71 1d       	adc	r23, r1
 f6e:	81 1d       	adc	r24, r1
 f70:	91 1d       	adc	r25, r1
 f72:	a1 1d       	adc	r26, r1
 f74:	20 d0       	rcall	.+64     	; 0xfb6 <__ultoa_invert+0x84>
 f76:	09 f4       	brne	.+2      	; 0xf7a <__ultoa_invert+0x48>
 f78:	68 94       	set
 f7a:	3f 91       	pop	r19
 f7c:	2a e0       	ldi	r18, 0x0A	; 10
 f7e:	26 9f       	mul	r18, r22
 f80:	11 24       	eor	r1, r1
 f82:	30 19       	sub	r19, r0
 f84:	30 5d       	subi	r19, 0xD0	; 208
 f86:	31 93       	st	Z+, r19
 f88:	de f6       	brtc	.-74     	; 0xf40 <__ultoa_invert+0xe>
 f8a:	cf 01       	movw	r24, r30
 f8c:	08 95       	ret
 f8e:	46 2f       	mov	r20, r22
 f90:	47 70       	andi	r20, 0x07	; 7
 f92:	40 5d       	subi	r20, 0xD0	; 208
 f94:	41 93       	st	Z+, r20
 f96:	b3 e0       	ldi	r27, 0x03	; 3
 f98:	0f d0       	rcall	.+30     	; 0xfb8 <__ultoa_invert+0x86>
 f9a:	c9 f7       	brne	.-14     	; 0xf8e <__ultoa_invert+0x5c>
 f9c:	f6 cf       	rjmp	.-20     	; 0xf8a <__ultoa_invert+0x58>
 f9e:	46 2f       	mov	r20, r22
 fa0:	4f 70       	andi	r20, 0x0F	; 15
 fa2:	40 5d       	subi	r20, 0xD0	; 208
 fa4:	4a 33       	cpi	r20, 0x3A	; 58
 fa6:	18 f0       	brcs	.+6      	; 0xfae <__ultoa_invert+0x7c>
 fa8:	49 5d       	subi	r20, 0xD9	; 217
 faa:	31 fd       	sbrc	r19, 1
 fac:	40 52       	subi	r20, 0x20	; 32
 fae:	41 93       	st	Z+, r20
 fb0:	02 d0       	rcall	.+4      	; 0xfb6 <__ultoa_invert+0x84>
 fb2:	a9 f7       	brne	.-22     	; 0xf9e <__ultoa_invert+0x6c>
 fb4:	ea cf       	rjmp	.-44     	; 0xf8a <__ultoa_invert+0x58>
 fb6:	b4 e0       	ldi	r27, 0x04	; 4
 fb8:	a6 95       	lsr	r26
 fba:	97 95       	ror	r25
 fbc:	87 95       	ror	r24
 fbe:	77 95       	ror	r23
 fc0:	67 95       	ror	r22
 fc2:	ba 95       	dec	r27
 fc4:	c9 f7       	brne	.-14     	; 0xfb8 <__ultoa_invert+0x86>
 fc6:	00 97       	sbiw	r24, 0x00	; 0
 fc8:	61 05       	cpc	r22, r1
 fca:	71 05       	cpc	r23, r1
 fcc:	08 95       	ret
 fce:	9b 01       	movw	r18, r22
 fd0:	ac 01       	movw	r20, r24
 fd2:	0a 2e       	mov	r0, r26
 fd4:	06 94       	lsr	r0
 fd6:	57 95       	ror	r21
 fd8:	47 95       	ror	r20
 fda:	37 95       	ror	r19
 fdc:	27 95       	ror	r18
 fde:	ba 95       	dec	r27
 fe0:	c9 f7       	brne	.-14     	; 0xfd4 <__ultoa_invert+0xa2>
 fe2:	62 0f       	add	r22, r18
 fe4:	73 1f       	adc	r23, r19
 fe6:	84 1f       	adc	r24, r20
 fe8:	95 1f       	adc	r25, r21
 fea:	a0 1d       	adc	r26, r0
 fec:	08 95       	ret

00000fee <_exit>:
 fee:	f8 94       	cli

00000ff0 <__stop_program>:
 ff0:	ff cf       	rjmp	.-2      	; 0xff0 <__stop_program>
